

Microchip MPLAB XC8 Assembler V2.46 build 20240104201356 
                                                                                               Tue Feb 06 21:32:08 2024

Microchip MPLAB XC8 C Compiler v2.46 (Free license) build 20240104201356 Og1 
     1                           	processor	18F45K50
     2                           	fnconf	rparam,??,?,0
     3                           	pagewidth 120
     4                           	opt	flic
     5                           	psect	smallconst,global,reloc=2,class=SMALLCONST,delta=1,noexec
     6                           	psect	_firma_text,global,ovrld,reloc=2,class=CODE,delta=1,noexec
     7                           	psect	cinit,global,reloc=2,class=CODE,delta=1
     8                           	psect	bssCOMRAM,global,class=COMRAM,space=1,delta=1,lowdata,noexec
     9                           	psect	cstackBANK0,global,class=BANK0,space=1,delta=1,lowdata,noexec
    10                           	psect	cstackCOMRAM,global,class=COMRAM,space=1,delta=1,lowdata,noexec
    11                           	psect	text0,global,reloc=2,class=CODE,delta=1
    12                           	psect	text1,global,reloc=2,class=CODE,delta=1
    13                           	psect	intcodelo,global,reloc=2,class=CODE,delta=1
    14                           	psect	text3,global,reloc=2,class=CODE,delta=1,group=2
    15                           	psect	text4,global,reloc=2,class=CODE,delta=1,group=1
    16                           	psect	text5,global,reloc=2,class=CODE,delta=1,group=1
    17                           	psect	text6,global,reloc=2,class=CODE,delta=1,group=1
    18                           	psect	text7,global,reloc=2,class=CODE,delta=1,group=1
    19                           	psect	text8,global,reloc=2,class=CODE,delta=1,group=1
    20                           	psect	intcode,global,reloc=2,class=CODE,delta=1
    21                           	psect	intcode_body,global,reloc=2,class=CODE,delta=1
    22                           	psect	intsave_regs,global,class=BIGRAM,space=1,delta=1,noexec
    23                           	psect	rparam,global,class=COMRAM,space=1,delta=1,noexec
    24                           	psect	temp,global,ovrld,common,class=COMRAM,space=1,delta=1,lowdata
    25   000000                     
    26                           ; Generated 21/07/2023 GMT
    27                           ; 
    28                           ; Copyright © 2023, Microchip Technology Inc. and its subsidiaries ("Microchip")
    29                           ; All rights reserved.
    30                           ; 
    31                           ; This software is developed by Microchip Technology Inc. and its subsidiaries ("Microch
      +                          ip").
    32                           ; 
    33                           ; Redistribution and use in source and binary forms, with or without modification, are
    34                           ; permitted provided that the following conditions are met:
    35                           ; 
    36                           ;     1. Redistributions of source code must retain the above copyright notice, this lis
      +                          t of
    37                           ;        conditions and the following disclaimer.
    38                           ; 
    39                           ;     2. Redistributions in binary form must reproduce the above copyright notice, this 
      +                          list
    40                           ;        of conditions and the following disclaimer in the documentation and/or other
    41                           ;        materials provided with the distribution. Publication is not required when
    42                           ;        this file is used in an embedded application.
    43                           ; 
    44                           ;     3. Microchip's name may not be used to endorse or promote products derived from th
      +                          is
    45                           ;        software without specific prior written permission.
    46                           ; 
    47                           ; THIS SOFTWARE IS PROVIDED BY MICROCHIP "AS IS" AND ANY EXPRESS OR IMPLIED WARRANTIES,
    48                           ; INCLUDING, BUT NOT LIMITED TO, THE IMPLIED WARRANTIES OF MERCHANTABILITY AND FITNESS F
      +                          OR
    49                           ; PURPOSE ARE DISCLAIMED.  IN NO EVENT SHALL MICROCHIP BE LIABLE FOR ANY DIRECT, INDIREC
      +                          T,
    50                           ; INCIDENTAL, SPECIAL, EXEMPLARY, OR CONSEQUENTIAL DAMAGES (INCLUDING BUT NOT LIMITED TO
    51                           ; PROCUREMENT OF SUBSTITUTE GOODS OR SERVICES; LOSS OF USE, DATA OR PROFITS; OR BUSINESS
    52                           ; INTERRUPTION) HOWSOEVER CAUSED AND ON ANY THEORY OF LIABILITY, WHETHER IN CONTRACT, ST
      +                          RICT
    53                           ; LIABILITY, OR TORT (INCLUDING NEGLIGENCE OR OTHERWISE) ARISING IN ANY WAY OUT OF THE U
      +                          SE OF
    54                           ; THIS SOFTWARE, EVEN IF ADVISED OF THE POSSIBILITY OF SUCH DAMAGE.
    55                           ; 
    56                           ; 
    57                           ; Code-generator required, PIC18F45K50 Definitions
    58                           ; 
    59                           ; SFR Addresses
    60   000000                     
    61                           	psect	smallconst
    62   00203E                     __psmallconst:
    63                           	callstack 0
    64   00203E  00                 	db	0
    65   00203F                     _segmentos:
    66                           	callstack 0
    67   00203F  24                 	db	36
    68   002040  C7                 	db	199
    69   002041  E5                 	db	229
    70   002042  74                 	db	116
    71   002043  F1                 	db	241
    72   002044  F3                 	db	243
    73   002045  A4                 	db	164
    74   002046  F7                 	db	247
    75   002047  F4                 	db	244
    76   002048  B7                 	db	183
    77   002049  40                 	db	64
    78   00204A  D3                 	db	211
    79   00204B  42                 	db	66
    80   00204C  48                 	db	72
    81   00204D  2C                 	db	44
    82   00204E  CF                 	db	207
    83   00204F  ED                 	db	237
    84   002050  7C                 	db	124
    85   002051  F8                 	db	248
    86   002052  FB                 	db	251
    87   002053  AC                 	db	172
    88   002054  FF                 	db	255
    89   002055  FC                 	db	252
    90   002056  BF                 	db	191
    91   002057                     __end_of_segmentos:
    92                           	callstack 0
    93   000000                     _firma_absaddr	set	4102
    94   000000                     _firma_absaddr	set	4102
    95   002057  00                 	db	0	; dummy byte at the end
    96   000000                     
    97                           	psect	_firma_text
    98   001006                     __p_firma_text:
    99                           	callstack 0
   100   001006                     _firma:
   101                           	callstack 0
   102   001006  600D               	dw	24589
   103   001008                     __end_of_firma:
   104                           	callstack 0
   105   000000                     _INTCON	set	4082
   106   000000                     _PORTDbits	set	3971
   107   000000                     _ANSELA	set	3931
   108   000000                     _PORTD	set	3971
   109   000000                     _LATA	set	3977
   110   000000                     _TMR0L	set	4054
   111   000000                     _TMR0H	set	4055
   112   000000                     _INTCONbits	set	4082
   113   000000                     _INTCON2bits	set	4081
   114   000000                     _LATCbits	set	3979
   115   000000                     _LATEbits	set	3981
   116   000000                     _TRISA	set	3986
   117   000000                     _OSCTUNE	set	3995
   118   000000                     _PIR1bits	set	3998
   119   000000                     _TXREG1	set	4013
   120   000000                     _SPBRG1	set	4015
   121   000000                     _RCONbits	set	4048
   122   000000                     _OSCCON2	set	4050
   123   000000                     _OSCCON	set	4051
   124   000000                     _RCSTA1bits	set	4011
   125   000000                     _TXSTA1bits	set	4012
   126   000000                     _IPR1bits	set	3999
   127   000000                     _T0CONbits	set	4053
   128   000000                     _PIE1bits	set	3997
   129   000000                     _TRISE	set	3990
   130   000000                     _TRISD	set	3989
   131   000000                     _TRISC	set	3988
   132   000000                     _TRISB	set	3987
   133   000000                     _ANSELE	set	3935
   134   000000                     _ANSELD	set	3934
   135   000000                     _ANSELC	set	3933
   136   000000                     _ANSELB	set	3932
   137   000000                     _BAUDCON1	set	4024
   138   000000                     _SPBRGH1	set	4016
   139                           
   140                           ; #config settings
   141                           
   142                           	psect	cinit
   143   002582                     __pcinit:
   144                           	callstack 0
   145   002582                     start_initialization:
   146                           	callstack 0
   147   002582                     __initialization:
   148                           	callstack 0
   149                           
   150                           ; Clear objects allocated to COMRAM (31 bytes)
   151   002582  EE00  F02C         	lfsr	0,__pbssCOMRAM
   152   002586  0E1F               	movlw	31
   153   002588                     clear_0:
   154   002588  6AEE               	clrf	postinc0,c
   155   00258A  06E8               	decf	wreg,f,c
   156   00258C  E1FD               	bnz	clear_0
   157   00258E                     end_of_initialization:
   158                           	callstack 0
   159   00258E                     __end_of__initialization:
   160                           	callstack 0
   161   00258E  904B               	bcf	int$flags,0,c	;clear compiler interrupt flag (level 1)
   162   002590  924B               	bcf	int$flags,1,c	;clear compiler interrupt flag (level 2)
   163   002592  0E00               	movlw	low (__Lmediumconst shr (0+16))
   164   002594  6EF8               	movwf	tblptru,c
   165   002596  0100               	movlb	0
   166   002598  EFAF  F012         	goto	_main	;jump to C main() function
   167                           
   168                           	psect	bssCOMRAM
   169   00002C                     __pbssCOMRAM:
   170                           	callstack 0
   171   00002C                     fabsf@F465:
   172                           	callstack 0
   173   00002C                     	ds	4
   174   000030                     _resultadoabs:
   175                           	callstack 0
   176   000030                     	ds	2
   177   000032                     _resultado:
   178                           	callstack 0
   179   000032                     	ds	2
   180   000034                     _contador:
   181                           	callstack 0
   182   000034                     	ds	2
   183   000036                     _sumando2:
   184                           	callstack 0
   185   000036                     	ds	2
   186   000038                     _sumando1:
   187                           	callstack 0
   188   000038                     	ds	2
   189   00003A                     _VAL:
   190                           	callstack 0
   191   00003A                     	ds	2
   192   00003C                     _dis4:
   193                           	callstack 0
   194   00003C                     	ds	2
   195   00003E                     _dis3:
   196                           	callstack 0
   197   00003E                     	ds	2
   198   000040                     _dis2:
   199                           	callstack 0
   200   000040                     	ds	2
   201   000042                     _dis1:
   202                           	callstack 0
   203   000042                     	ds	2
   204   000044                     _bandera1:
   205                           	callstack 0
   206   000044                     	ds	2
   207   000046                     lint@rota:
   208                           	callstack 0
   209   000046                     	ds	1
   210   000047                     _ope:
   211                           	callstack 0
   212   000047                     	ds	1
   213   000048                     _REINICIO:
   214                           	callstack 0
   215   000048                     	ds	1
   216   000049                     _SIG:
   217                           	callstack 0
   218   000049                     	ds	1
   219   00004A                     _cambio1:
   220                           	callstack 0
   221   00004A                     	ds	1
   222                           
   223                           	psect	cstackBANK0
   224   000000                     __pcstackBANK0:
   225                           	callstack 0
   226   000000                     
   227                           ; 1 bytes @ 0x0
   228                           
   229                           	psect	cstackCOMRAM
   230   000001                     __pcstackCOMRAM:
   231                           	callstack 0
   232   000001                     ?___wmul:
   233                           	callstack 0
   234   000001                     ?___awdiv:
   235                           	callstack 0
   236   000001                     ?___xxtofl:
   237                           	callstack 0
   238   000001                     ___wmul@multiplier:
   239                           	callstack 0
   240   000001                     ___awdiv@dividend:
   241                           	callstack 0
   242   000001                     ___xxtofl@val:
   243                           	callstack 0
   244                           
   245                           ; 4 bytes @ 0x0
   246   000001                     	ds	2
   247   000003                     ___wmul@multiplicand:
   248                           	callstack 0
   249   000003                     ___awdiv@divisor:
   250                           	callstack 0
   251                           
   252                           ; 2 bytes @ 0x2
   253   000003                     	ds	2
   254   000005                     ??___xxtofl:
   255   000005                     ___awdiv@counter:
   256                           	callstack 0
   257   000005                     ___wmul@product:
   258                           	callstack 0
   259                           
   260                           ; 2 bytes @ 0x4
   261   000005                     	ds	1
   262   000006                     ___awdiv@sign:
   263                           	callstack 0
   264                           
   265                           ; 1 bytes @ 0x5
   266   000006                     	ds	1
   267   000007                     ___awdiv@quotient:
   268                           	callstack 0
   269                           
   270                           ; 2 bytes @ 0x6
   271   000007                     	ds	2
   272   000009                     ?___awmod:
   273                           	callstack 0
   274   000009                     ___xxtofl@sign:
   275                           	callstack 0
   276   000009                     ___awmod@dividend:
   277                           	callstack 0
   278                           
   279                           ; 2 bytes @ 0x8
   280   000009                     	ds	1
   281   00000A                     ___xxtofl@exp:
   282                           	callstack 0
   283                           
   284                           ; 1 bytes @ 0x9
   285   00000A                     	ds	1
   286   00000B                     ___awmod@divisor:
   287                           	callstack 0
   288   00000B                     ___xxtofl@arg:
   289                           	callstack 0
   290                           
   291                           ; 4 bytes @ 0xA
   292   00000B                     	ds	2
   293   00000D                     ___awmod@counter:
   294                           	callstack 0
   295                           
   296                           ; 1 bytes @ 0xC
   297   00000D                     	ds	1
   298   00000E                     ___awmod@sign:
   299                           	callstack 0
   300                           
   301                           ; 1 bytes @ 0xD
   302   00000E                     	ds	1
   303   00000F                     ?_fabsf:
   304                           	callstack 0
   305   00000F                     fabsf@x:
   306                           	callstack 0
   307                           
   308                           ; 4 bytes @ 0xE
   309   00000F                     	ds	4
   310   000013                     fabsf@u:
   311                           	callstack 0
   312                           
   313                           ; 4 bytes @ 0x12
   314   000013                     	ds	4
   315   000017                     ?___fltol:
   316                           	callstack 0
   317   000017                     ___fltol@f1:
   318                           	callstack 0
   319                           
   320                           ; 4 bytes @ 0x16
   321   000017                     	ds	4
   322   00001B                     ??___fltol:
   323                           
   324                           ; 1 bytes @ 0x1A
   325   00001B                     	ds	4
   326   00001F                     ___fltol@sign1:
   327                           	callstack 0
   328                           
   329                           ; 1 bytes @ 0x1E
   330   00001F                     	ds	1
   331   000020                     ___fltol@exp1:
   332                           	callstack 0
   333                           
   334                           ; 1 bytes @ 0x1F
   335   000020                     	ds	1
   336   000021                     ??_lint:
   337                           
   338                           ; 1 bytes @ 0x20
   339   000021                     	ds	11
   340                           
   341 ;;
   342 ;;Main: autosize = 0, tempsize = 0, incstack = 0, save=0
   343 ;;
   344 ;; *************** function _main *****************
   345 ;; Defined at:
   346 ;;		line 558 in file "main.c"
   347 ;; Parameters:    Size  Location     Type
   348 ;;		None
   349 ;; Auto vars:     Size  Location     Type
   350 ;;		None
   351 ;; Return value:  Size  Location     Type
   352 ;;                  1    wreg      void 
   353 ;; Registers used:
   354 ;;		wreg, status,2, cstack
   355 ;; Tracked objects:
   356 ;;		On entry : 0/0
   357 ;;		On exit  : 0/0
   358 ;;		Unchanged: 0/0
   359 ;; Data sizes:     COMRAM   BANK0   BANK1   BANK2   BANK3   BANK4   BANK5   BANK6   BANK7
   360 ;;      Params:         0       0       0       0       0       0       0       0       0
   361 ;;      Locals:         0       0       0       0       0       0       0       0       0
   362 ;;      Temps:          0       0       0       0       0       0       0       0       0
   363 ;;      Totals:         0       0       0       0       0       0       0       0       0
   364 ;;Total ram usage:        0 bytes
   365 ;; Hardware stack levels required when called: 4
   366 ;; This function calls:
   367 ;;		_config
   368 ;; This function is called by:
   369 ;;		Startup code after reset
   370 ;; This function uses a non-reentrant model
   371 ;;
   372                           
   373                           	psect	text0
   374   00255E                     __ptext0:
   375                           	callstack 0
   376   00255E                     _main:
   377                           	callstack 27
   378   00255E                     
   379                           ;main.c: 559:     config();
   380   00255E  EC43  F012         	call	_config	;wreg free
   381   002562                     
   382                           ;main.c: 560:     SIG=0;
   383   002562  0E00               	movlw	0
   384   002564  6E49               	movwf	_SIG^0,c
   385   002566                     
   386                           ;main.c: 561:     bandera1=0;
   387   002566  0E00               	movlw	0
   388   002568  6E45               	movwf	(_bandera1+1)^0,c
   389   00256A  0E00               	movlw	0
   390   00256C  6E44               	movwf	_bandera1^0,c
   391   00256E                     
   392                           ;main.c: 562:     cambio1=0;
   393   00256E  0E00               	movlw	0
   394   002570  6E4A               	movwf	_cambio1^0,c
   395   002572                     
   396                           ;main.c: 563:     contador=0;
   397   002572  0E00               	movlw	0
   398   002574  6E35               	movwf	(_contador+1)^0,c
   399   002576  0E00               	movlw	0
   400   002578  6E34               	movwf	_contador^0,c
   401   00257A                     l163:
   402   00257A  EFBD  F012         	goto	l163
   403   00257E  EF1D  F010         	goto	start
   404   002582                     __end_of_main:
   405                           	callstack 0
   406                           
   407 ;; *************** function _config *****************
   408 ;; Defined at:
   409 ;;		line 8 in file "config.c"
   410 ;; Parameters:    Size  Location     Type
   411 ;;		None
   412 ;; Auto vars:     Size  Location     Type
   413 ;;		None
   414 ;; Return value:  Size  Location     Type
   415 ;;                  1    wreg      void 
   416 ;; Registers used:
   417 ;;		wreg, status,2
   418 ;; Tracked objects:
   419 ;;		On entry : 0/0
   420 ;;		On exit  : 0/0
   421 ;;		Unchanged: 0/0
   422 ;; Data sizes:     COMRAM   BANK0   BANK1   BANK2   BANK3   BANK4   BANK5   BANK6   BANK7
   423 ;;      Params:         0       0       0       0       0       0       0       0       0
   424 ;;      Locals:         0       0       0       0       0       0       0       0       0
   425 ;;      Temps:          0       0       0       0       0       0       0       0       0
   426 ;;      Totals:         0       0       0       0       0       0       0       0       0
   427 ;;Total ram usage:        0 bytes
   428 ;; Hardware stack levels used: 1
   429 ;; Hardware stack levels required when called: 3
   430 ;; This function calls:
   431 ;;		Nothing
   432 ;; This function is called by:
   433 ;;		_main
   434 ;; This function uses a non-reentrant model
   435 ;;
   436                           
   437                           	psect	text1
   438   002486                     __ptext1:
   439                           	callstack 0
   440   002486                     _config:
   441                           	callstack 27
   442   002486                     
   443                           ;config.c: 12:         OSCCON=0x70;
   444   002486  0E70               	movlw	112
   445   002488  6ED3               	movwf	211,c	;volatile
   446                           
   447                           ;config.c: 14:   OSCCON2=0x10;
   448   00248A  0E10               	movlw	16
   449   00248C  6ED2               	movwf	210,c	;volatile
   450                           
   451                           ;config.c: 15:   OSCTUNE=0x80;
   452   00248E  0E80               	movlw	128
   453   002490  6E9B               	movwf	155,c	;volatile
   454                           
   455                           ;config.c: 21:     TRISA=0x00;
   456   002492  0E00               	movlw	0
   457   002494  6E92               	movwf	146,c	;volatile
   458                           
   459                           ;config.c: 22:     TRISB=0xE1;
   460   002496  0EE1               	movlw	225
   461   002498  6E93               	movwf	147,c	;volatile
   462                           
   463                           ;config.c: 23:     TRISC=0xBC;
   464   00249A  0EBC               	movlw	188
   465   00249C  6E94               	movwf	148,c	;volatile
   466                           
   467                           ;config.c: 24:     TRISD=0x0F;
   468   00249E  0E0F               	movlw	15
   469   0024A0  6E95               	movwf	149,c	;volatile
   470                           
   471                           ;config.c: 25:     TRISE=0x00;
   472   0024A2  0E00               	movlw	0
   473   0024A4  6E96               	movwf	150,c	;volatile
   474                           
   475                           ;config.c: 27:     ANSELA=0x00;
   476   0024A6  0E00               	movlw	0
   477   0024A8  010F               	movlb	15	; () banked
   478   0024AA  6F5B               	movwf	91,b	;volatile
   479                           
   480                           ;config.c: 28:     ANSELB=0x00;
   481   0024AC  0E00               	movlw	0
   482   0024AE  6F5C               	movwf	92,b	;volatile
   483                           
   484                           ;config.c: 29:     ANSELC=0x00;
   485   0024B0  0E00               	movlw	0
   486   0024B2  6F5D               	movwf	93,b	;volatile
   487                           
   488                           ;config.c: 30:     ANSELD=0x00;
   489   0024B4  0E00               	movlw	0
   490   0024B6  6F5E               	movwf	94,b	;volatile
   491                           
   492                           ;config.c: 31:     ANSELE=0x00;
   493   0024B8  0E00               	movlw	0
   494   0024BA  6F5F               	movwf	95,b	;volatile
   495                           
   496                           ;config.c: 36:      INTCON=0;
   497   0024BC  0E00               	movlw	0
   498   0024BE  6EF2               	movwf	242,c	;volatile
   499   0024C0                     
   500                           ; BSR set to: 15
   501                           ;config.c: 37:     RCONbits.IPEN=1;
   502   0024C0  8ED0               	bsf	208,7,c	;volatile
   503   0024C2                     
   504                           ; BSR set to: 15
   505                           ;config.c: 38:     INTCONbits.INT0E=1;
   506   0024C2  88F2               	bsf	242,4,c	;volatile
   507   0024C4                     
   508                           ; BSR set to: 15
   509                           ;config.c: 39:     INTCON2bits.INTEDG0=0;
   510   0024C4  9CF1               	bcf	241,6,c	;volatile
   511   0024C6                     
   512                           ; BSR set to: 15
   513                           ;config.c: 40:     INTCONbits.GIEH=1;
   514   0024C6  8EF2               	bsf	242,7,c	;volatile
   515   0024C8                     
   516                           ; BSR set to: 15
   517                           ;config.c: 41:     INTCONbits.GIEL=1;
   518   0024C8  8CF2               	bsf	242,6,c	;volatile
   519   0024CA                     
   520                           ; BSR set to: 15
   521                           ;config.c: 42:     INTCONbits.T0IE=1;
   522   0024CA  8AF2               	bsf	242,5,c	;volatile
   523   0024CC                     
   524                           ; BSR set to: 15
   525                           ;config.c: 43:     INTCON2bits.T0IP=0;
   526   0024CC  94F1               	bcf	241,2,c	;volatile
   527   0024CE                     
   528                           ; BSR set to: 15
   529                           ;config.c: 44:     PIE1bits.RCIE=0;
   530   0024CE  9A9D               	bcf	157,5,c	;volatile
   531   0024D0                     
   532                           ; BSR set to: 15
   533                           ;config.c: 45:     IPR1bits.RCIP=1;
   534   0024D0  8A9F               	bsf	159,5,c	;volatile
   535   0024D2                     
   536                           ; BSR set to: 15
   537                           ;config.c: 48:     T0CONbits.T08BIT=0;
   538   0024D2  9CD5               	bcf	213,6,c	;volatile
   539   0024D4                     
   540                           ; BSR set to: 15
   541                           ;config.c: 49:     T0CONbits.T0CS=0;
   542   0024D4  9AD5               	bcf	213,5,c	;volatile
   543   0024D6                     
   544                           ; BSR set to: 15
   545                           ;config.c: 50:     T0CONbits.PSA=0;
   546   0024D6  96D5               	bcf	213,3,c	;volatile
   547                           
   548                           ;config.c: 51:     T0CONbits.T0PS=1;
   549   0024D8  50D5               	movf	213,w,c	;volatile
   550   0024DA  0BF8               	andlw	-8
   551   0024DC  0901               	iorlw	1
   552   0024DE  6ED5               	movwf	213,c	;volatile
   553                           
   554                           ;config.c: 55:     TMR0H=0xd1;;
   555   0024E0  0ED1               	movlw	209
   556   0024E2  6ED7               	movwf	215,c	;volatile
   557                           
   558                           ;config.c: 56:     TMR0L=0x1f;;
   559   0024E4  0E1F               	movlw	31
   560   0024E6  6ED6               	movwf	214,c	;volatile
   561                           
   562                           ;config.c: 60:     SPBRG1 = 0x4d;
   563   0024E8  0E4D               	movlw	77
   564   0024EA  6EAF               	movwf	175,c	;volatile
   565                           
   566                           ;config.c: 61:     SPBRGH1 = 0;
   567   0024EC  0E00               	movlw	0
   568   0024EE  6EB0               	movwf	176,c	;volatile
   569   0024F0                     
   570                           ; BSR set to: 15
   571                           ;config.c: 62:     TXSTA1bits.BRGH=0;
   572   0024F0  94AC               	bcf	172,2,c	;volatile
   573   0024F2                     
   574                           ; BSR set to: 15
   575                           ;config.c: 63:     TXSTA1bits.TX9=0;
   576   0024F2  9CAC               	bcf	172,6,c	;volatile
   577   0024F4                     
   578                           ; BSR set to: 15
   579                           ;config.c: 64:     TXSTA1bits.TXEN=1;
   580   0024F4  8AAC               	bsf	172,5,c	;volatile
   581   0024F6                     
   582                           ; BSR set to: 15
   583                           ;config.c: 65:     TXSTA1bits.SYNC=0;
   584   0024F6  98AC               	bcf	172,4,c	;volatile
   585   0024F8                     
   586                           ; BSR set to: 15
   587                           ;config.c: 66:     RCSTA1bits.RX9=0;
   588   0024F8  9CAB               	bcf	171,6,c	;volatile
   589   0024FA                     
   590                           ; BSR set to: 15
   591                           ;config.c: 67:     RCSTA1bits.CREN=1;
   592   0024FA  88AB               	bsf	171,4,c	;volatile
   593                           
   594                           ;config.c: 68:     BAUDCON1=0x40;
   595   0024FC  0E40               	movlw	64
   596   0024FE  6EB8               	movwf	184,c	;volatile
   597   002500                     
   598                           ; BSR set to: 15
   599                           ;config.c: 69:     RCSTA1bits.SPEN=1;
   600   002500  8EAB               	bsf	171,7,c	;volatile
   601   002502                     
   602                           ; BSR set to: 15
   603   002502  0012               	return		;funcret
   604   002504                     __end_of_config:
   605                           	callstack 0
   606                           
   607 ;; *************** function _lint *****************
   608 ;; Defined at:
   609 ;;		line 48 in file "main.c"
   610 ;; Parameters:    Size  Location     Type
   611 ;;		None
   612 ;; Auto vars:     Size  Location     Type
   613 ;;		None
   614 ;; Return value:  Size  Location     Type
   615 ;;                  1    wreg      void 
   616 ;; Registers used:
   617 ;;		wreg, status,2, status,0, tblptrl, tblptrh, tblptru, prodl, prodh, cstack
   618 ;; Tracked objects:
   619 ;;		On entry : 0/0
   620 ;;		On exit  : 0/0
   621 ;;		Unchanged: 0/0
   622 ;; Data sizes:     COMRAM   BANK0   BANK1   BANK2   BANK3   BANK4   BANK5   BANK6   BANK7
   623 ;;      Params:         0       0       0       0       0       0       0       0       0
   624 ;;      Locals:         0       0       0       0       0       0       0       0       0
   625 ;;      Temps:         11       0       0       0       0       0       0       0       0
   626 ;;      Totals:        11       0       0       0       0       0       0       0       0
   627 ;;Total ram usage:       11 bytes
   628 ;; Hardware stack levels used: 1
   629 ;; Hardware stack levels required when called: 2
   630 ;; This function calls:
   631 ;;		___awdiv
   632 ;;		___awmod
   633 ;;		___fltol
   634 ;;		___wmul
   635 ;;		___xxtofl
   636 ;;		_fabsf
   637 ;; This function is called by:
   638 ;;		Interrupt level 1
   639 ;; This function uses a non-reentrant model
   640 ;;
   641                           
   642                           	psect	intcodelo
   643   001018                     __pintcodelo:
   644                           	callstack 0
   645   001018                     _lint:
   646                           	callstack 27
   647                           
   648                           ; BSR set to: 15
   649                           ;incstack = 0
   650   001018  804B               	bsf	int$flags,0,c	;set compiler interrupt flag (level 1)
   651   00101A  CFD8 F023          	movff	status,??_lint+2
   652   00101E  CFE8 F024          	movff	wreg,??_lint+3
   653   001022  CFE0 F025          	movff	bsr,??_lint+4
   654   001026  CFF3 F026          	movff	prodl,??_lint+5
   655   00102A  CFF4 F027          	movff	prodh,??_lint+6
   656   00102E  CFF6 F028          	movff	tblptrl,??_lint+7
   657   001032  CFF7 F029          	movff	tblptrh,??_lint+8
   658   001036  CFF8 F02A          	movff	tblptru,??_lint+9
   659   00103A  CFF5 F02B          	movff	tablat,??_lint+10
   660   00103E                     
   661                           ;main.c: 50:   char static rota;;main.c: 52:         if(INTCONbits.TMR0IF){
   662   00103E  A4F2               	btfss	242,2,c	;volatile
   663   001040  EF24  F008         	goto	i1u141_21
   664   001044  EF26  F008         	goto	i1u141_20
   665   001048                     i1u141_21:
   666   001048  EF09  F010         	goto	i1l158
   667   00104C                     i1u141_20:
   668   00104C                     
   669                           ;main.c: 54:             TMR0H=0xd1;;
   670   00104C  0ED1               	movlw	209
   671   00104E  6ED7               	movwf	215,c	;volatile
   672                           
   673                           ;main.c: 55:             TMR0L=0x1f;;
   674   001050  0E1F               	movlw	31
   675   001052  6ED6               	movwf	214,c	;volatile
   676   001054                     
   677                           ;main.c: 57:             if (rota>=4)rota=1;
   678   001054  0E03               	movlw	3
   679   001056  6446               	cpfsgt	lint@rota^0,c
   680   001058  EF30  F008         	goto	i1u142_21
   681   00105C  EF32  F008         	goto	i1u142_20
   682   001060                     i1u142_21:
   683   001060  EF36  F008         	goto	i1l1843
   684   001064                     i1u142_20:
   685   001064  0E01               	movlw	1
   686   001066  6E46               	movwf	lint@rota^0,c
   687   001068  EFA5  F009         	goto	i1l1981
   688   00106C                     i1l1843:
   689                           
   690                           ;main.c: 60:                 rota++;
   691   00106C  2A46               	incf	lint@rota^0,f,c
   692   00106E  EFA5  F009         	goto	i1l1981
   693   001072                     i1l1845:
   694                           
   695                           ;main.c: 69:                     LATA=segmentos[dis1];
   696   001072  5042               	movf	_dis1^0,w,c
   697   001074  0F3F               	addlw	low _segmentos
   698   001076  6E21               	movwf	??_lint^0,c
   699   001078  C021  FFF6         	movff	??_lint,tblptrl
   700   00107C                     	if	1	;There is more than 1 active tblptr byte
   701   00107C  0E20               	movlw	high __smallconst
   702   00107E  6EF7               	movwf	tblptrh,c
   703   001080                     	endif
   704   001080                     	if	0	;tblptru may be non-zero
   705   001080                     	endif
   706   001080                     	if	0	;tblptru may be non-zero
   707   001080                     	endif
   708   001080  0008               	tblrd		*
   709   001082  CFF5 FF89          	movff	tablat,3977	;volatile
   710   001086                     
   711                           ;main.c: 70:                     LATEbits.LE2=1;
   712   001086  848D               	bsf	141,2,c	;volatile
   713   001088                     
   714                           ;main.c: 71:                     LATEbits.LE1=0;
   715   001088  928D               	bcf	141,1,c	;volatile
   716   00108A                     
   717                           ;main.c: 72:                     LATEbits.LE0=0;
   718   00108A  908D               	bcf	141,0,c	;volatile
   719   00108C                     
   720                           ;main.c: 73:                     LATCbits.LC1=0;
   721   00108C  928B               	bcf	139,1,c	;volatile
   722   00108E                     
   723                           ;main.c: 82:                     if((PORTD & 0x0F)!=0) {
   724   00108E  CF83 F021          	movff	3971,??_lint	;volatile
   725   001092  0E0F               	movlw	15
   726   001094  1621               	andwf	??_lint^0,f,c
   727   001096  B4D8               	btfsc	status,2,c
   728   001098  EF50  F008         	goto	i1u143_21
   729   00109C  EF52  F008         	goto	i1u143_20
   730   0010A0                     i1u143_21:
   731   0010A0  EFB8  F009         	goto	i1l1983
   732   0010A4                     i1u143_20:
   733   0010A4                     
   734                           ;main.c: 83:                         if (PORTDbits.RD3 == 1) {
   735   0010A4  A683               	btfss	131,3,c	;volatile
   736   0010A6  EF57  F008         	goto	i1u144_21
   737   0010AA  EF59  F008         	goto	i1u144_20
   738   0010AE                     i1u144_21:
   739   0010AE  EF63  F008         	goto	i1l1863
   740   0010B2                     i1u144_20:
   741   0010B2                     
   742                           ;main.c: 84:                         VAL=3;
   743   0010B2  0E00               	movlw	0
   744   0010B4  6E3B               	movwf	(_VAL+1)^0,c
   745   0010B6  0E03               	movlw	3
   746   0010B8  6E3A               	movwf	_VAL^0,c
   747   0010BA                     
   748                           ;main.c: 85:                         bandera1=bandera1+1;
   749   0010BA  0E01               	movlw	1
   750   0010BC  2444               	addwf	_bandera1^0,w,c
   751   0010BE  6E44               	movwf	_bandera1^0,c
   752   0010C0  0E00               	movlw	0
   753   0010C2  2045               	addwfc	(_bandera1+1)^0,w,c
   754   0010C4  6E45               	movwf	(_bandera1+1)^0,c
   755   0010C6                     i1l1863:
   756                           
   757                           ;main.c: 88:                           if (PORTDbits.RD2 == 1) {
   758   0010C6  A483               	btfss	131,2,c	;volatile
   759   0010C8  EF68  F008         	goto	i1u145_21
   760   0010CC  EF6A  F008         	goto	i1u145_20
   761   0010D0                     i1u145_21:
   762   0010D0  EF74  F008         	goto	i1l1869
   763   0010D4                     i1u145_20:
   764   0010D4                     
   765                           ;main.c: 89:                         VAL=4;
   766   0010D4  0E00               	movlw	0
   767   0010D6  6E3B               	movwf	(_VAL+1)^0,c
   768   0010D8  0E04               	movlw	4
   769   0010DA  6E3A               	movwf	_VAL^0,c
   770   0010DC                     
   771                           ;main.c: 90:                         bandera1=bandera1+1;
   772   0010DC  0E01               	movlw	1
   773   0010DE  2444               	addwf	_bandera1^0,w,c
   774   0010E0  6E44               	movwf	_bandera1^0,c
   775   0010E2  0E00               	movlw	0
   776   0010E4  2045               	addwfc	(_bandera1+1)^0,w,c
   777   0010E6  6E45               	movwf	(_bandera1+1)^0,c
   778   0010E8                     i1l1869:
   779                           
   780                           ;main.c: 93:                           if (PORTDbits.RD1 == 1) {
   781   0010E8  A283               	btfss	131,1,c	;volatile
   782   0010EA  EF79  F008         	goto	i1u146_21
   783   0010EE  EF7B  F008         	goto	i1u146_20
   784   0010F2                     i1u146_21:
   785   0010F2  EF85  F008         	goto	i1l1875
   786   0010F6                     i1u146_20:
   787   0010F6                     
   788                           ;main.c: 94:                         VAL=5;
   789   0010F6  0E00               	movlw	0
   790   0010F8  6E3B               	movwf	(_VAL+1)^0,c
   791   0010FA  0E05               	movlw	5
   792   0010FC  6E3A               	movwf	_VAL^0,c
   793   0010FE                     
   794                           ;main.c: 95:                         bandera1=bandera1+1;
   795   0010FE  0E01               	movlw	1
   796   001100  2444               	addwf	_bandera1^0,w,c
   797   001102  6E44               	movwf	_bandera1^0,c
   798   001104  0E00               	movlw	0
   799   001106  2045               	addwfc	(_bandera1+1)^0,w,c
   800   001108  6E45               	movwf	(_bandera1+1)^0,c
   801   00110A                     i1l1875:
   802                           
   803                           ;main.c: 99:                         if (PORTDbits.RD0 == 1) {
   804   00110A  A083               	btfss	131,0,c	;volatile
   805   00110C  EF8A  F008         	goto	i1u147_21
   806   001110  EF8C  F008         	goto	i1u147_20
   807   001114                     i1u147_21:
   808   001114  EFB8  F009         	goto	i1l1983
   809   001118                     i1u147_20:
   810   001118                     
   811                           ;main.c: 100:                         ope=4;
   812   001118  0E04               	movlw	4
   813   00111A  6E47               	movwf	_ope^0,c
   814                           
   815                           ;main.c: 101:                         REINICIO=2;
   816   00111C  0E02               	movlw	2
   817   00111E  6E48               	movwf	_REINICIO^0,c
   818                           
   819                           ;main.c: 102:                         contador=1;
   820   001120  0E00               	movlw	0
   821   001122  6E35               	movwf	(_contador+1)^0,c
   822   001124  0E01               	movlw	1
   823   001126  6E34               	movwf	_contador^0,c
   824   001128                     i1l1879:
   825                           
   826                           ;main.c: 103:                         _delay((unsigned long)((100)*(48000000/4000.0)));
   827   001128  0E07               	movlw	7
   828   00112A  6E22               	movwf	(??_lint+1)^0,c
   829   00112C  0E17               	movlw	23
   830   00112E  6E21               	movwf	??_lint^0,c
   831   001130  0E6A               	movlw	106
   832   001132                     i1u221_27:
   833   001132  2EE8               	decfsz	wreg,f,c
   834   001134  D7FE               	bra	i1u221_27
   835   001136  2E21               	decfsz	??_lint^0,f,c
   836   001138  D7FC               	bra	i1u221_27
   837   00113A  2E22               	decfsz	(??_lint+1)^0,f,c
   838   00113C  D7FA               	bra	i1u221_27
   839   00113E  D000               	nop2	
   840   001140  EFB8  F009         	goto	i1l1983
   841   001144                     i1l83:
   842                           
   843                           ;main.c: 112:                     LATEbits.LE2=0;
   844   001144  948D               	bcf	141,2,c	;volatile
   845   001146                     
   846                           ;main.c: 113:                     LATA=segmentos[dis2];
   847   001146  5040               	movf	_dis2^0,w,c
   848   001148  0F3F               	addlw	low _segmentos
   849   00114A  6E21               	movwf	??_lint^0,c
   850   00114C  C021  FFF6         	movff	??_lint,tblptrl
   851   001150                     	if	1	;There is more than 1 active tblptr byte
   852   001150  0E20               	movlw	high __smallconst
   853   001152  6EF7               	movwf	tblptrh,c
   854   001154                     	endif
   855   001154                     	if	0	;tblptru may be non-zero
   856   001154                     	endif
   857   001154                     	if	0	;tblptru may be non-zero
   858   001154                     	endif
   859   001154  0008               	tblrd		*
   860   001156  CFF5 FF89          	movff	tablat,3977	;volatile
   861   00115A                     
   862                           ;main.c: 114:                     LATEbits.LE1=1;
   863   00115A  828D               	bsf	141,1,c	;volatile
   864   00115C                     
   865                           ;main.c: 115:                     LATEbits.LE0=0;
   866   00115C  908D               	bcf	141,0,c	;volatile
   867   00115E                     
   868                           ;main.c: 116:                     LATCbits.LC1=0;
   869   00115E  928B               	bcf	139,1,c	;volatile
   870   001160                     
   871                           ;main.c: 124:                     if((PORTD & 0x0F)!=0) {
   872   001160  CF83 F021          	movff	3971,??_lint	;volatile
   873   001164  0E0F               	movlw	15
   874   001166  1621               	andwf	??_lint^0,f,c
   875   001168  B4D8               	btfsc	status,2,c
   876   00116A  EFB9  F008         	goto	i1u148_21
   877   00116E  EFBB  F008         	goto	i1u148_20
   878   001172                     i1u148_21:
   879   001172  EFB8  F009         	goto	i1l1983
   880   001176                     i1u148_20:
   881   001176                     
   882                           ;main.c: 125:                         if (PORTDbits.RD3 == 1) {
   883   001176  A683               	btfss	131,3,c	;volatile
   884   001178  EFC0  F008         	goto	i1u149_21
   885   00117C  EFC2  F008         	goto	i1u149_20
   886   001180                     i1u149_21:
   887   001180  EFC8  F008         	goto	i1l1897
   888   001184                     i1u149_20:
   889   001184                     
   890                           ;main.c: 126:                         VAL=2;
   891   001184  0E00               	movlw	0
   892   001186  6E3B               	movwf	(_VAL+1)^0,c
   893   001188  0E02               	movlw	2
   894   00118A  6E3A               	movwf	_VAL^0,c
   895   00118C                     
   896                           ;main.c: 127:                         bandera1++;
   897   00118C  4A44               	infsnz	_bandera1^0,f,c
   898   00118E  2A45               	incf	(_bandera1+1)^0,f,c
   899   001190                     i1l1897:
   900                           
   901                           ;main.c: 129:                         if (PORTDbits.RD2 == 1) {
   902   001190  A483               	btfss	131,2,c	;volatile
   903   001192  EFCD  F008         	goto	i1u150_21
   904   001196  EFCF  F008         	goto	i1u150_20
   905   00119A                     i1u150_21:
   906   00119A  EFD5  F008         	goto	i1l1903
   907   00119E                     i1u150_20:
   908   00119E                     
   909                           ;main.c: 130:                         VAL=1;
   910   00119E  0E00               	movlw	0
   911   0011A0  6E3B               	movwf	(_VAL+1)^0,c
   912   0011A2  0E01               	movlw	1
   913   0011A4  6E3A               	movwf	_VAL^0,c
   914   0011A6                     
   915                           ;main.c: 131:                         bandera1++;
   916   0011A6  4A44               	infsnz	_bandera1^0,f,c
   917   0011A8  2A45               	incf	(_bandera1+1)^0,f,c
   918   0011AA                     i1l1903:
   919                           
   920                           ;main.c: 133:                           if (PORTDbits.RD1 == 1) {
   921   0011AA  A283               	btfss	131,1,c	;volatile
   922   0011AC  EFDA  F008         	goto	i1u151_21
   923   0011B0  EFDC  F008         	goto	i1u151_20
   924   0011B4                     i1u151_21:
   925   0011B4  EFE2  F008         	goto	i1l1909
   926   0011B8                     i1u151_20:
   927   0011B8                     
   928                           ;main.c: 134:                         VAL=0;
   929   0011B8  0E00               	movlw	0
   930   0011BA  6E3B               	movwf	(_VAL+1)^0,c
   931   0011BC  0E00               	movlw	0
   932   0011BE  6E3A               	movwf	_VAL^0,c
   933   0011C0                     
   934                           ;main.c: 135:                         bandera1++;
   935   0011C0  4A44               	infsnz	_bandera1^0,f,c
   936   0011C2  2A45               	incf	(_bandera1+1)^0,f,c
   937   0011C4                     i1l1909:
   938                           
   939                           ;main.c: 137:                         if (PORTDbits.RD0 == 1) {
   940   0011C4  A083               	btfss	131,0,c	;volatile
   941   0011C6  EFE7  F008         	goto	i1u152_21
   942   0011CA  EFE9  F008         	goto	i1u152_20
   943   0011CE                     i1u152_21:
   944   0011CE  EFB8  F009         	goto	i1l1983
   945   0011D2                     i1u152_20:
   946   0011D2                     
   947                           ;main.c: 138:                         ope=8;
   948   0011D2  0E08               	movlw	8
   949   0011D4  6E47               	movwf	_ope^0,c
   950                           
   951                           ;main.c: 139:                         REINICIO=2;
   952   0011D6  0E02               	movlw	2
   953   0011D8  6E48               	movwf	_REINICIO^0,c
   954                           
   955                           ;main.c: 140:                         contador=1;
   956   0011DA  0E00               	movlw	0
   957   0011DC  6E35               	movwf	(_contador+1)^0,c
   958   0011DE  0E01               	movlw	1
   959   0011E0  6E34               	movwf	_contador^0,c
   960   0011E2  EF94  F008         	goto	i1l1879
   961   0011E6                     i1l89:
   962                           
   963                           ;main.c: 147:                     LATEbits.LE2=0;
   964   0011E6  948D               	bcf	141,2,c	;volatile
   965                           
   966                           ;main.c: 148:                     LATEbits.LE1=0;
   967   0011E8  928D               	bcf	141,1,c	;volatile
   968   0011EA                     
   969                           ;main.c: 149:                     LATA=segmentos[dis3];
   970   0011EA  503E               	movf	_dis3^0,w,c
   971   0011EC  0F3F               	addlw	low _segmentos
   972   0011EE  6E21               	movwf	??_lint^0,c
   973   0011F0  C021  FFF6         	movff	??_lint,tblptrl
   974   0011F4                     	if	1	;There is more than 1 active tblptr byte
   975   0011F4  0E20               	movlw	high __smallconst
   976   0011F6  6EF7               	movwf	tblptrh,c
   977   0011F8                     	endif
   978   0011F8                     	if	0	;tblptru may be non-zero
   979   0011F8                     	endif
   980   0011F8                     	if	0	;tblptru may be non-zero
   981   0011F8                     	endif
   982   0011F8  0008               	tblrd		*
   983   0011FA  CFF5 FF89          	movff	tablat,3977	;volatile
   984   0011FE                     
   985                           ;main.c: 150:                     LATEbits.LE0=1;
   986   0011FE  808D               	bsf	141,0,c	;volatile
   987   001200                     
   988                           ;main.c: 151:                     LATCbits.LC1=0;
   989   001200  928B               	bcf	139,1,c	;volatile
   990   001202                     
   991                           ;main.c: 157:                 if((PORTD & 0x0F)!=0) {
   992   001202  CF83 F021          	movff	3971,??_lint	;volatile
   993   001206  0E0F               	movlw	15
   994   001208  1621               	andwf	??_lint^0,f,c
   995   00120A  B4D8               	btfsc	status,2,c
   996   00120C  EF0A  F009         	goto	i1u153_21
   997   001210  EF0C  F009         	goto	i1u153_20
   998   001214                     i1u153_21:
   999   001214  EFB8  F009         	goto	i1l1983
  1000   001218                     i1u153_20:
  1001   001218                     
  1002                           ;main.c: 158:                     if (PORTDbits.RD3 == 1) {
  1003   001218  A683               	btfss	131,3,c	;volatile
  1004   00121A  EF11  F009         	goto	i1u154_21
  1005   00121E  EF13  F009         	goto	i1u154_20
  1006   001222                     i1u154_21:
  1007   001222  EF19  F009         	goto	i1l1929
  1008   001226                     i1u154_20:
  1009   001226                     
  1010                           ;main.c: 159:                         VAL=9;
  1011   001226  0E00               	movlw	0
  1012   001228  6E3B               	movwf	(_VAL+1)^0,c
  1013   00122A  0E09               	movlw	9
  1014   00122C  6E3A               	movwf	_VAL^0,c
  1015   00122E                     
  1016                           ;main.c: 160:                         bandera1++;
  1017   00122E  4A44               	infsnz	_bandera1^0,f,c
  1018   001230  2A45               	incf	(_bandera1+1)^0,f,c
  1019   001232                     i1l1929:
  1020                           
  1021                           ;main.c: 163:                     if (PORTDbits.RD0 == 1) {
  1022   001232  A083               	btfss	131,0,c	;volatile
  1023   001234  EF1E  F009         	goto	i1u155_21
  1024   001238  EF20  F009         	goto	i1u155_20
  1025   00123C                     i1u155_21:
  1026   00123C  EF3F  F009         	goto	i1l1943
  1027   001240                     i1u155_20:
  1028   001240                     
  1029                           ;main.c: 164:                         SIG++;
  1030   001240  2A49               	incf	_SIG^0,f,c
  1031   001242                     
  1032                           ;main.c: 165:                     if ((SIG % 2) == 0){
  1033   001242  B049               	btfsc	_SIG^0,0,c
  1034   001244  EF26  F009         	goto	i1u156_21
  1035   001248  EF28  F009         	goto	i1u156_20
  1036   00124C                     i1u156_21:
  1037   00124C  EF39  F009         	goto	i1l1939
  1038   001250                     i1u156_20:
  1039   001250                     
  1040                           ;main.c: 166:                         dis4=10;
  1041   001250  0E00               	movlw	0
  1042   001252  6E3D               	movwf	(_dis4+1)^0,c
  1043   001254  0E0A               	movlw	10
  1044   001256  6E3C               	movwf	_dis4^0,c
  1045   001258                     i1l1937:
  1046                           
  1047                           ;main.c: 167:                         _delay((unsigned long)((200)*(48000000/4000.0)));
  1048   001258  0E0D               	movlw	13
  1049   00125A  6E22               	movwf	(??_lint+1)^0,c
  1050   00125C  0E2D               	movlw	45
  1051   00125E  6E21               	movwf	??_lint^0,c
  1052   001260  0ED8               	movlw	216
  1053   001262                     i1u222_27:
  1054   001262  2EE8               	decfsz	wreg,f,c
  1055   001264  D7FE               	bra	i1u222_27
  1056   001266  2E21               	decfsz	??_lint^0,f,c
  1057   001268  D7FC               	bra	i1u222_27
  1058   00126A  2E22               	decfsz	(??_lint+1)^0,f,c
  1059   00126C  D7FA               	bra	i1u222_27
  1060                           
  1061                           ;main.c: 168:                     }
  1062   00126E  EF3F  F009         	goto	i1l1943
  1063   001272                     i1l1939:
  1064                           
  1065                           ;main.c: 170:                         dis4=13;
  1066   001272  0E00               	movlw	0
  1067   001274  6E3D               	movwf	(_dis4+1)^0,c
  1068   001276  0E0D               	movlw	13
  1069   001278  6E3C               	movwf	_dis4^0,c
  1070   00127A  EF2C  F009         	goto	i1l1937
  1071   00127E                     i1l1943:
  1072                           
  1073                           ;main.c: 176:                     if (PORTDbits.RD2 == 1) {
  1074   00127E  A483               	btfss	131,2,c	;volatile
  1075   001280  EF44  F009         	goto	i1u157_21
  1076   001284  EF46  F009         	goto	i1u157_20
  1077   001288                     i1u157_21:
  1078   001288  EF48  F009         	goto	i1l1947
  1079   00128C                     i1u157_20:
  1080   00128C                     
  1081                           ;main.c: 177:                         REINICIO=1;
  1082   00128C  0E01               	movlw	1
  1083   00128E  6E48               	movwf	_REINICIO^0,c
  1084   001290                     i1l1947:
  1085                           
  1086                           ;main.c: 180:                     if (PORTDbits.RD1 == 1) {
  1087   001290  A283               	btfss	131,1,c	;volatile
  1088   001292  EF4D  F009         	goto	i1u158_21
  1089   001296  EF4F  F009         	goto	i1u158_20
  1090   00129A                     i1u158_21:
  1091   00129A  EFB8  F009         	goto	i1l1983
  1092   00129E                     i1u158_20:
  1093   00129E                     
  1094                           ;main.c: 181:                         contador++;
  1095   00129E  4A34               	infsnz	_contador^0,f,c
  1096   0012A0  2A35               	incf	(_contador+1)^0,f,c
  1097   0012A2  EFB8  F009         	goto	i1l1983
  1098   0012A6                     i1l97:
  1099                           
  1100                           ;main.c: 194:                     LATEbits.LE2=0;
  1101   0012A6  948D               	bcf	141,2,c	;volatile
  1102                           
  1103                           ;main.c: 195:                     LATEbits.LE1=0;
  1104   0012A8  928D               	bcf	141,1,c	;volatile
  1105                           
  1106                           ;main.c: 196:                     LATEbits.LE0=0;
  1107   0012AA  908D               	bcf	141,0,c	;volatile
  1108   0012AC                     
  1109                           ;main.c: 197:                     LATA=segmentos[dis4];
  1110   0012AC  503C               	movf	_dis4^0,w,c
  1111   0012AE  0F3F               	addlw	low _segmentos
  1112   0012B0  6E21               	movwf	??_lint^0,c
  1113   0012B2  C021  FFF6         	movff	??_lint,tblptrl
  1114   0012B6                     	if	1	;There is more than 1 active tblptr byte
  1115   0012B6  0E20               	movlw	high __smallconst
  1116   0012B8  6EF7               	movwf	tblptrh,c
  1117   0012BA                     	endif
  1118   0012BA                     	if	0	;tblptru may be non-zero
  1119   0012BA                     	endif
  1120   0012BA                     	if	0	;tblptru may be non-zero
  1121   0012BA                     	endif
  1122   0012BA  0008               	tblrd		*
  1123   0012BC  CFF5 FF89          	movff	tablat,3977	;volatile
  1124   0012C0                     
  1125                           ;main.c: 198:                     LATCbits.LC1=1;
  1126   0012C0  828B               	bsf	139,1,c	;volatile
  1127   0012C2                     
  1128                           ;main.c: 203:                         if (PORTDbits.RD3 == 1) {
  1129   0012C2  A683               	btfss	131,3,c	;volatile
  1130   0012C4  EF66  F009         	goto	i1u159_21
  1131   0012C8  EF68  F009         	goto	i1u159_20
  1132   0012CC                     i1u159_21:
  1133   0012CC  EF72  F009         	goto	i1l1961
  1134   0012D0                     i1u159_20:
  1135   0012D0                     
  1136                           ;main.c: 204:                         VAL=6;
  1137   0012D0  0E00               	movlw	0
  1138   0012D2  6E3B               	movwf	(_VAL+1)^0,c
  1139   0012D4  0E06               	movlw	6
  1140   0012D6  6E3A               	movwf	_VAL^0,c
  1141   0012D8                     
  1142                           ;main.c: 205:                         bandera1=bandera1+1;
  1143   0012D8  0E01               	movlw	1
  1144   0012DA  2444               	addwf	_bandera1^0,w,c
  1145   0012DC  6E44               	movwf	_bandera1^0,c
  1146   0012DE  0E00               	movlw	0
  1147   0012E0  2045               	addwfc	(_bandera1+1)^0,w,c
  1148   0012E2  6E45               	movwf	(_bandera1+1)^0,c
  1149   0012E4                     i1l1961:
  1150                           
  1151                           ;main.c: 208:                         if (PORTDbits.RD2 == 1) {
  1152   0012E4  A483               	btfss	131,2,c	;volatile
  1153   0012E6  EF77  F009         	goto	i1u160_21
  1154   0012EA  EF79  F009         	goto	i1u160_20
  1155   0012EE                     i1u160_21:
  1156   0012EE  EF83  F009         	goto	i1l1967
  1157   0012F2                     i1u160_20:
  1158   0012F2                     
  1159                           ;main.c: 209:                         VAL=7;
  1160   0012F2  0E00               	movlw	0
  1161   0012F4  6E3B               	movwf	(_VAL+1)^0,c
  1162   0012F6  0E07               	movlw	7
  1163   0012F8  6E3A               	movwf	_VAL^0,c
  1164   0012FA                     
  1165                           ;main.c: 210:                         bandera1=bandera1+1;
  1166   0012FA  0E01               	movlw	1
  1167   0012FC  2444               	addwf	_bandera1^0,w,c
  1168   0012FE  6E44               	movwf	_bandera1^0,c
  1169   001300  0E00               	movlw	0
  1170   001302  2045               	addwfc	(_bandera1+1)^0,w,c
  1171   001304  6E45               	movwf	(_bandera1+1)^0,c
  1172   001306                     i1l1967:
  1173                           
  1174                           ;main.c: 213:                         if (PORTDbits.RD1 == 1) {
  1175   001306  A283               	btfss	131,1,c	;volatile
  1176   001308  EF88  F009         	goto	i1u161_21
  1177   00130C  EF8A  F009         	goto	i1u161_20
  1178   001310                     i1u161_21:
  1179   001310  EF94  F009         	goto	i1l1973
  1180   001314                     i1u161_20:
  1181   001314                     
  1182                           ;main.c: 214:                         VAL=8;
  1183   001314  0E00               	movlw	0
  1184   001316  6E3B               	movwf	(_VAL+1)^0,c
  1185   001318  0E08               	movlw	8
  1186   00131A  6E3A               	movwf	_VAL^0,c
  1187   00131C                     
  1188                           ;main.c: 215:                         bandera1=bandera1+1;
  1189   00131C  0E01               	movlw	1
  1190   00131E  2444               	addwf	_bandera1^0,w,c
  1191   001320  6E44               	movwf	_bandera1^0,c
  1192   001322  0E00               	movlw	0
  1193   001324  2045               	addwfc	(_bandera1+1)^0,w,c
  1194   001326  6E45               	movwf	(_bandera1+1)^0,c
  1195   001328                     i1l1973:
  1196                           
  1197                           ;main.c: 218:                         if (PORTDbits.RD0 == 1) {
  1198   001328  A083               	btfss	131,0,c	;volatile
  1199   00132A  EF99  F009         	goto	i1u162_21
  1200   00132E  EF9B  F009         	goto	i1u162_20
  1201   001332                     i1u162_21:
  1202   001332  EFB8  F009         	goto	i1l1983
  1203   001336                     i1u162_20:
  1204   001336                     
  1205                           ;main.c: 219:                         ope=1;
  1206   001336  0E01               	movlw	1
  1207   001338  6E47               	movwf	_ope^0,c
  1208                           
  1209                           ;main.c: 220:                         REINICIO=2;
  1210   00133A  0E02               	movlw	2
  1211   00133C  6E48               	movwf	_REINICIO^0,c
  1212                           
  1213                           ;main.c: 221:                         contador=1;
  1214   00133E  0E00               	movlw	0
  1215   001340  6E35               	movwf	(_contador+1)^0,c
  1216   001342  0E01               	movlw	1
  1217   001344  6E34               	movwf	_contador^0,c
  1218   001346  EF94  F008         	goto	i1l1879
  1219   00134A                     i1l1981:
  1220   00134A  5046               	movf	lint@rota^0,w,c
  1221                           
  1222                           ; Switch size 1, requested type "simple"
  1223                           ; Number of cases is 4, Range of values is 1 to 4
  1224                           ; switch strategies available:
  1225                           ; Name         Instructions Cycles
  1226                           ; simple_byte           13     7 (average)
  1227                           ;	Chosen strategy is simple_byte
  1228   00134C  0A01               	xorlw	1	; case 1
  1229   00134E  B4D8               	btfsc	status,2,c
  1230   001350  EF39  F008         	goto	i1l1845
  1231   001354  0A03               	xorlw	3	; case 2
  1232   001356  B4D8               	btfsc	status,2,c
  1233   001358  EFA2  F008         	goto	i1l83
  1234   00135C  0A01               	xorlw	1	; case 3
  1235   00135E  B4D8               	btfsc	status,2,c
  1236   001360  EFF3  F008         	goto	i1l89
  1237   001364  0A07               	xorlw	7	; case 4
  1238   001366  B4D8               	btfsc	status,2,c
  1239   001368  EF53  F009         	goto	i1l97
  1240   00136C  EFB8  F009         	goto	i1l1983
  1241   001370                     i1l1983:
  1242                           
  1243                           ;main.c: 229:             if(bandera1==0 & cambio1==0){
  1244   001370  5044               	movf	_bandera1^0,w,c
  1245   001372  1045               	iorwf	(_bandera1+1)^0,w,c
  1246   001374  A4D8               	btfss	status,2,c
  1247   001376  EFBF  F009         	goto	i1u163_21
  1248   00137A  EFC1  F009         	goto	i1u163_20
  1249   00137E                     i1u163_21:
  1250   00137E  EFF3  F009         	goto	i1l1997
  1251   001382                     i1u163_20:
  1252   001382  504A               	movf	_cambio1^0,w,c
  1253   001384  A4D8               	btfss	status,2,c
  1254   001386  EFC7  F009         	goto	i1u164_21
  1255   00138A  EFC9  F009         	goto	i1u164_20
  1256   00138E                     i1u164_21:
  1257   00138E  EFF3  F009         	goto	i1l1997
  1258   001392                     i1u164_20:
  1259   001392                     
  1260                           ;main.c: 230:              dis1=10;
  1261   001392  0E00               	movlw	0
  1262   001394  6E43               	movwf	(_dis1+1)^0,c
  1263   001396  0E0A               	movlw	10
  1264   001398  6E42               	movwf	_dis1^0,c
  1265                           
  1266                           ;main.c: 231:              dis2=10;
  1267   00139A  0E00               	movlw	0
  1268   00139C  6E41               	movwf	(_dis2+1)^0,c
  1269   00139E  0E0A               	movlw	10
  1270   0013A0  6E40               	movwf	_dis2^0,c
  1271                           
  1272                           ;main.c: 232:              dis3=10;
  1273   0013A2  0E00               	movlw	0
  1274   0013A4  6E3F               	movwf	(_dis3+1)^0,c
  1275   0013A6  0E0A               	movlw	10
  1276   0013A8  6E3E               	movwf	_dis3^0,c
  1277   0013AA                     
  1278                           ;main.c: 233:              if((SIG % 2) == 0){
  1279   0013AA  B049               	btfsc	_SIG^0,0,c
  1280   0013AC  EFDA  F009         	goto	i1u165_21
  1281   0013B0  EFDC  F009         	goto	i1u165_20
  1282   0013B4                     i1u165_21:
  1283   0013B4  EFE2  F009         	goto	i1l1993
  1284   0013B8                     i1u165_20:
  1285   0013B8                     
  1286                           ;main.c: 234:              dis4=10;
  1287   0013B8  0E00               	movlw	0
  1288   0013BA  6E3D               	movwf	(_dis4+1)^0,c
  1289   0013BC  0E0A               	movlw	10
  1290   0013BE  6E3C               	movwf	_dis4^0,c
  1291                           
  1292                           ;main.c: 235:              }
  1293   0013C0  EFE6  F009         	goto	i1l104
  1294   0013C4                     i1l1993:
  1295                           
  1296                           ;main.c: 237:                  dis4=13;
  1297   0013C4  0E00               	movlw	0
  1298   0013C6  6E3D               	movwf	(_dis4+1)^0,c
  1299   0013C8  0E0D               	movlw	13
  1300   0013CA  6E3C               	movwf	_dis4^0,c
  1301   0013CC                     i1l104:
  1302                           
  1303                           ;main.c: 239:              cambio1=1;
  1304   0013CC  0E01               	movlw	1
  1305   0013CE  6E4A               	movwf	_cambio1^0,c
  1306   0013D0                     
  1307                           ;main.c: 240:              _delay((unsigned long)((200)*(48000000/4000.0)));
  1308   0013D0  0E0D               	movlw	13
  1309   0013D2  6E22               	movwf	(??_lint+1)^0,c
  1310   0013D4  0E2D               	movlw	45
  1311   0013D6  6E21               	movwf	??_lint^0,c
  1312   0013D8  0ED8               	movlw	216
  1313   0013DA                     i1u223_27:
  1314   0013DA  2EE8               	decfsz	wreg,f,c
  1315   0013DC  D7FE               	bra	i1u223_27
  1316   0013DE  2E21               	decfsz	??_lint^0,f,c
  1317   0013E0  D7FC               	bra	i1u223_27
  1318   0013E2  2E22               	decfsz	(??_lint+1)^0,f,c
  1319   0013E4  D7FA               	bra	i1u223_27
  1320   0013E6                     i1l1997:
  1321                           
  1322                           ;main.c: 245:             if(bandera1==1 & cambio1==1 ){
  1323   0013E6  0444               	decf	_bandera1^0,w,c
  1324   0013E8  1045               	iorwf	(_bandera1+1)^0,w,c
  1325   0013EA  A4D8               	btfss	status,2,c
  1326   0013EC  EFFA  F009         	goto	i1u166_21
  1327   0013F0  EFFC  F009         	goto	i1u166_20
  1328   0013F4                     i1u166_21:
  1329   0013F4  EF2E  F00A         	goto	i1l2013
  1330   0013F8                     i1u166_20:
  1331   0013F8  044A               	decf	_cambio1^0,w,c
  1332   0013FA  A4D8               	btfss	status,2,c
  1333   0013FC  EF02  F00A         	goto	i1u167_21
  1334   001400  EF04  F00A         	goto	i1u167_20
  1335   001404                     i1u167_21:
  1336   001404  EF2E  F00A         	goto	i1l2013
  1337   001408                     i1u167_20:
  1338   001408                     
  1339                           ;main.c: 246:             dis1=VAL;
  1340   001408  C03A  F042         	movff	_VAL,_dis1
  1341   00140C  C03B  F043         	movff	_VAL+1,_dis1+1
  1342   001410                     
  1343                           ;main.c: 247:             dis2=10;
  1344   001410  0E00               	movlw	0
  1345   001412  6E41               	movwf	(_dis2+1)^0,c
  1346   001414  0E0A               	movlw	10
  1347   001416  6E40               	movwf	_dis2^0,c
  1348                           
  1349                           ;main.c: 248:             dis3=10;
  1350   001418  0E00               	movlw	0
  1351   00141A  6E3F               	movwf	(_dis3+1)^0,c
  1352   00141C  0E0A               	movlw	10
  1353   00141E  6E3E               	movwf	_dis3^0,c
  1354   001420                     
  1355                           ;main.c: 249:             if((SIG % 2) == 0){
  1356   001420  B049               	btfsc	_SIG^0,0,c
  1357   001422  EF15  F00A         	goto	i1u168_21
  1358   001426  EF17  F00A         	goto	i1u168_20
  1359   00142A                     i1u168_21:
  1360   00142A  EF1D  F00A         	goto	i1l2009
  1361   00142E                     i1u168_20:
  1362   00142E                     
  1363                           ;main.c: 250:              dis4=10;
  1364   00142E  0E00               	movlw	0
  1365   001430  6E3D               	movwf	(_dis4+1)^0,c
  1366   001432  0E0A               	movlw	10
  1367   001434  6E3C               	movwf	_dis4^0,c
  1368                           
  1369                           ;main.c: 251:              }
  1370   001436  EF21  F00A         	goto	i1l107
  1371   00143A                     i1l2009:
  1372                           
  1373                           ;main.c: 253:                  dis4=13;
  1374   00143A  0E00               	movlw	0
  1375   00143C  6E3D               	movwf	(_dis4+1)^0,c
  1376   00143E  0E0D               	movlw	13
  1377   001440  6E3C               	movwf	_dis4^0,c
  1378   001442                     i1l107:
  1379                           
  1380                           ;main.c: 255:             cambio1=0;
  1381   001442  0E00               	movlw	0
  1382   001444  6E4A               	movwf	_cambio1^0,c
  1383   001446                     
  1384                           ;main.c: 256:             _delay((unsigned long)((200)*(48000000/4000.0)));
  1385   001446  0E0D               	movlw	13
  1386   001448  6E22               	movwf	(??_lint+1)^0,c
  1387   00144A  0E2D               	movlw	45
  1388   00144C  6E21               	movwf	??_lint^0,c
  1389   00144E  0ED8               	movlw	216
  1390   001450                     i1u224_27:
  1391   001450  2EE8               	decfsz	wreg,f,c
  1392   001452  D7FE               	bra	i1u224_27
  1393   001454  2E21               	decfsz	??_lint^0,f,c
  1394   001456  D7FC               	bra	i1u224_27
  1395   001458  2E22               	decfsz	(??_lint+1)^0,f,c
  1396   00145A  D7FA               	bra	i1u224_27
  1397   00145C                     i1l2013:
  1398                           
  1399                           ;main.c: 259:             if(bandera1==2 & cambio1==0 ){
  1400   00145C  0E02               	movlw	2
  1401   00145E  1844               	xorwf	_bandera1^0,w,c
  1402   001460  1045               	iorwf	(_bandera1+1)^0,w,c
  1403   001462  A4D8               	btfss	status,2,c
  1404   001464  EF36  F00A         	goto	i1u169_21
  1405   001468  EF38  F00A         	goto	i1u169_20
  1406   00146C                     i1u169_21:
  1407   00146C  EF6A  F00A         	goto	i1l2029
  1408   001470                     i1u169_20:
  1409   001470  504A               	movf	_cambio1^0,w,c
  1410   001472  A4D8               	btfss	status,2,c
  1411   001474  EF3E  F00A         	goto	i1u170_21
  1412   001478  EF40  F00A         	goto	i1u170_20
  1413   00147C                     i1u170_21:
  1414   00147C  EF6A  F00A         	goto	i1l2029
  1415   001480                     i1u170_20:
  1416   001480                     
  1417                           ;main.c: 260:                 dis2=dis1;
  1418   001480  C042  F040         	movff	_dis1,_dis2
  1419   001484  C043  F041         	movff	_dis1+1,_dis2+1
  1420                           
  1421                           ;main.c: 261:                 dis1=VAL;
  1422   001488  C03A  F042         	movff	_VAL,_dis1
  1423   00148C  C03B  F043         	movff	_VAL+1,_dis1+1
  1424   001490                     
  1425                           ;main.c: 262:                 dis3=10;
  1426   001490  0E00               	movlw	0
  1427   001492  6E3F               	movwf	(_dis3+1)^0,c
  1428   001494  0E0A               	movlw	10
  1429   001496  6E3E               	movwf	_dis3^0,c
  1430   001498                     
  1431                           ;main.c: 263:             if((SIG % 2) == 0){
  1432   001498  B049               	btfsc	_SIG^0,0,c
  1433   00149A  EF51  F00A         	goto	i1u171_21
  1434   00149E  EF53  F00A         	goto	i1u171_20
  1435   0014A2                     i1u171_21:
  1436   0014A2  EF59  F00A         	goto	i1l2025
  1437   0014A6                     i1u171_20:
  1438   0014A6                     
  1439                           ;main.c: 264:              dis4=10;
  1440   0014A6  0E00               	movlw	0
  1441   0014A8  6E3D               	movwf	(_dis4+1)^0,c
  1442   0014AA  0E0A               	movlw	10
  1443   0014AC  6E3C               	movwf	_dis4^0,c
  1444                           
  1445                           ;main.c: 265:              }
  1446   0014AE  EF5D  F00A         	goto	i1l110
  1447   0014B2                     i1l2025:
  1448                           
  1449                           ;main.c: 267:                  dis4=13;
  1450   0014B2  0E00               	movlw	0
  1451   0014B4  6E3D               	movwf	(_dis4+1)^0,c
  1452   0014B6  0E0D               	movlw	13
  1453   0014B8  6E3C               	movwf	_dis4^0,c
  1454   0014BA                     i1l110:
  1455                           
  1456                           ;main.c: 269:                 cambio1=1;
  1457   0014BA  0E01               	movlw	1
  1458   0014BC  6E4A               	movwf	_cambio1^0,c
  1459   0014BE                     
  1460                           ;main.c: 270:                 _delay((unsigned long)((200)*(48000000/4000.0)));
  1461   0014BE  0E0D               	movlw	13
  1462   0014C0  6E22               	movwf	(??_lint+1)^0,c
  1463   0014C2  0E2D               	movlw	45
  1464   0014C4  6E21               	movwf	??_lint^0,c
  1465   0014C6  0ED8               	movlw	216
  1466   0014C8                     i1u225_27:
  1467   0014C8  2EE8               	decfsz	wreg,f,c
  1468   0014CA  D7FE               	bra	i1u225_27
  1469   0014CC  2E21               	decfsz	??_lint^0,f,c
  1470   0014CE  D7FC               	bra	i1u225_27
  1471   0014D0  2E22               	decfsz	(??_lint+1)^0,f,c
  1472   0014D2  D7FA               	bra	i1u225_27
  1473   0014D4                     i1l2029:
  1474                           
  1475                           ;main.c: 272:             if(bandera1==3 & cambio1==1){
  1476   0014D4  0E03               	movlw	3
  1477   0014D6  1844               	xorwf	_bandera1^0,w,c
  1478   0014D8  1045               	iorwf	(_bandera1+1)^0,w,c
  1479   0014DA  A4D8               	btfss	status,2,c
  1480   0014DC  EF72  F00A         	goto	i1u172_21
  1481   0014E0  EF74  F00A         	goto	i1u172_20
  1482   0014E4                     i1u172_21:
  1483   0014E4  EF99  F00A         	goto	i1l2037
  1484   0014E8                     i1u172_20:
  1485   0014E8  044A               	decf	_cambio1^0,w,c
  1486   0014EA  A4D8               	btfss	status,2,c
  1487   0014EC  EF7A  F00A         	goto	i1u173_21
  1488   0014F0  EF7C  F00A         	goto	i1u173_20
  1489   0014F4                     i1u173_21:
  1490   0014F4  EF99  F00A         	goto	i1l2037
  1491   0014F8                     i1u173_20:
  1492   0014F8                     
  1493                           ;main.c: 273:                 dis2=12;
  1494   0014F8  0E00               	movlw	0
  1495   0014FA  6E41               	movwf	(_dis2+1)^0,c
  1496   0014FC  0E0C               	movlw	12
  1497   0014FE  6E40               	movwf	_dis2^0,c
  1498                           
  1499                           ;main.c: 274:                 dis1=12;
  1500   001500  0E00               	movlw	0
  1501   001502  6E43               	movwf	(_dis1+1)^0,c
  1502   001504  0E0C               	movlw	12
  1503   001506  6E42               	movwf	_dis1^0,c
  1504                           
  1505                           ;main.c: 275:                 dis3=11;
  1506   001508  0E00               	movlw	0
  1507   00150A  6E3F               	movwf	(_dis3+1)^0,c
  1508   00150C  0E0B               	movlw	11
  1509   00150E  6E3E               	movwf	_dis3^0,c
  1510                           
  1511                           ;main.c: 276:                 dis4=10;
  1512   001510  0E00               	movlw	0
  1513   001512  6E3D               	movwf	(_dis4+1)^0,c
  1514   001514  0E0A               	movlw	10
  1515   001516  6E3C               	movwf	_dis4^0,c
  1516                           
  1517                           ;main.c: 277:                 cambio1=0;
  1518   001518  0E00               	movlw	0
  1519   00151A  6E4A               	movwf	_cambio1^0,c
  1520   00151C                     
  1521                           ;main.c: 278:                 _delay((unsigned long)((200)*(48000000/4000.0)));
  1522   00151C  0E0D               	movlw	13
  1523   00151E  6E22               	movwf	(??_lint+1)^0,c
  1524   001520  0E2D               	movlw	45
  1525   001522  6E21               	movwf	??_lint^0,c
  1526   001524  0ED8               	movlw	216
  1527   001526                     i1u226_27:
  1528   001526  2EE8               	decfsz	wreg,f,c
  1529   001528  D7FE               	bra	i1u226_27
  1530   00152A  2E21               	decfsz	??_lint^0,f,c
  1531   00152C  D7FC               	bra	i1u226_27
  1532   00152E  2E22               	decfsz	(??_lint+1)^0,f,c
  1533   001530  D7FA               	bra	i1u226_27
  1534   001532                     i1l2037:
  1535                           
  1536                           ;main.c: 281:             if(REINICIO==1){
  1537   001532  0448               	decf	_REINICIO^0,w,c
  1538   001534  A4D8               	btfss	status,2,c
  1539   001536  EF9F  F00A         	goto	i1u174_21
  1540   00153A  EFA1  F00A         	goto	i1u174_20
  1541   00153E                     i1u174_21:
  1542   00153E  EFC9  F00A         	goto	i1l2043
  1543   001542                     i1u174_20:
  1544   001542                     
  1545                           ;main.c: 282:                 REINICIO=0;
  1546   001542  0E00               	movlw	0
  1547   001544  6E48               	movwf	_REINICIO^0,c
  1548                           
  1549                           ;main.c: 283:                 SIG=0;
  1550   001546  0E00               	movlw	0
  1551   001548  6E49               	movwf	_SIG^0,c
  1552                           
  1553                           ;main.c: 284:                 bandera1=0;
  1554   00154A  0E00               	movlw	0
  1555   00154C  6E45               	movwf	(_bandera1+1)^0,c
  1556   00154E  0E00               	movlw	0
  1557   001550  6E44               	movwf	_bandera1^0,c
  1558                           
  1559                           ;main.c: 285:                 cambio1=0;
  1560   001552  0E00               	movlw	0
  1561   001554  6E4A               	movwf	_cambio1^0,c
  1562                           
  1563                           ;main.c: 286:                 ope=0;
  1564   001556  0E00               	movlw	0
  1565   001558  6E47               	movwf	_ope^0,c
  1566                           
  1567                           ;main.c: 287:                 contador=0;
  1568   00155A  0E00               	movlw	0
  1569   00155C  6E35               	movwf	(_contador+1)^0,c
  1570   00155E  0E00               	movlw	0
  1571   001560  6E34               	movwf	_contador^0,c
  1572                           
  1573                           ;main.c: 288:                 dis1=10;
  1574   001562  0E00               	movlw	0
  1575   001564  6E43               	movwf	(_dis1+1)^0,c
  1576   001566  0E0A               	movlw	10
  1577   001568  6E42               	movwf	_dis1^0,c
  1578                           
  1579                           ;main.c: 289:                 dis2=10;
  1580   00156A  0E00               	movlw	0
  1581   00156C  6E41               	movwf	(_dis2+1)^0,c
  1582   00156E  0E0A               	movlw	10
  1583   001570  6E40               	movwf	_dis2^0,c
  1584                           
  1585                           ;main.c: 290:                 dis3=10;
  1586   001572  0E00               	movlw	0
  1587   001574  6E3F               	movwf	(_dis3+1)^0,c
  1588   001576  0E0A               	movlw	10
  1589   001578  6E3E               	movwf	_dis3^0,c
  1590                           
  1591                           ;main.c: 291:                 dis4=10;
  1592   00157A  0E00               	movlw	0
  1593   00157C  6E3D               	movwf	(_dis4+1)^0,c
  1594   00157E  0E0A               	movlw	10
  1595   001580  6E3C               	movwf	_dis4^0,c
  1596   001582                     
  1597                           ;main.c: 292:             _delay((unsigned long)((10)*(48000000/4000.0)));
  1598   001582  0E9C               	movlw	156
  1599   001584  6E21               	movwf	??_lint^0,c
  1600   001586  0ED7               	movlw	215
  1601   001588                     i1u227_27:
  1602   001588  2EE8               	decfsz	wreg,f,c
  1603   00158A  D7FE               	bra	i1u227_27
  1604   00158C  2E21               	decfsz	??_lint^0,f,c
  1605   00158E  D7FC               	bra	i1u227_27
  1606   001590  0000               	nop	
  1607   001592                     i1l2043:
  1608                           
  1609                           ;main.c: 296:             if(REINICIO==2 & ope==1 & contador==1){
  1610   001592  0E02               	movlw	2
  1611   001594  1848               	xorwf	_REINICIO^0,w,c
  1612   001596  A4D8               	btfss	status,2,c
  1613   001598  EFD0  F00A         	goto	i1u175_21
  1614   00159C  EFD2  F00A         	goto	i1u175_20
  1615   0015A0                     i1u175_21:
  1616   0015A0  EF54  F00B         	goto	i1l2079
  1617   0015A4                     i1u175_20:
  1618   0015A4  0447               	decf	_ope^0,w,c
  1619   0015A6  A4D8               	btfss	status,2,c
  1620   0015A8  EFD8  F00A         	goto	i1u176_21
  1621   0015AC  EFDA  F00A         	goto	i1u176_20
  1622   0015B0                     i1u176_21:
  1623   0015B0  EF54  F00B         	goto	i1l2079
  1624   0015B4                     i1u176_20:
  1625   0015B4  0434               	decf	_contador^0,w,c
  1626   0015B6  1035               	iorwf	(_contador+1)^0,w,c
  1627   0015B8  A4D8               	btfss	status,2,c
  1628   0015BA  EFE1  F00A         	goto	i1u177_21
  1629   0015BE  EFE3  F00A         	goto	i1u177_20
  1630   0015C2                     i1u177_21:
  1631   0015C2  EF54  F00B         	goto	i1l2079
  1632   0015C6                     i1u177_20:
  1633   0015C6                     
  1634                           ;main.c: 298:             if(dis1==9){
  1635   0015C6  0E09               	movlw	9
  1636   0015C8  1842               	xorwf	_dis1^0,w,c
  1637   0015CA  1043               	iorwf	(_dis1+1)^0,w,c
  1638   0015CC  A4D8               	btfss	status,2,c
  1639   0015CE  EFEB  F00A         	goto	i1u178_21
  1640   0015D2  EFED  F00A         	goto	i1u178_20
  1641   0015D6                     i1u178_21:
  1642   0015D6  EFEF  F00A         	goto	i1l2053
  1643   0015DA                     i1u178_20:
  1644   0015DA                     
  1645                           ;main.c: 299:                 dis1=-1;
  1646   0015DA  6842               	setf	_dis1^0,c
  1647   0015DC  6843               	setf	(_dis1+1)^0,c
  1648   0015DE                     i1l2053:
  1649                           
  1650                           ;main.c: 301:             if(dis2==9){
  1651   0015DE  0E09               	movlw	9
  1652   0015E0  1840               	xorwf	_dis2^0,w,c
  1653   0015E2  1041               	iorwf	(_dis2+1)^0,w,c
  1654   0015E4  A4D8               	btfss	status,2,c
  1655   0015E6  EFF7  F00A         	goto	i1u179_21
  1656   0015EA  EFF9  F00A         	goto	i1u179_20
  1657   0015EE                     i1u179_21:
  1658   0015EE  EFFB  F00A         	goto	i1l115
  1659   0015F2                     i1u179_20:
  1660   0015F2                     
  1661                           ;main.c: 302:                 dis2=-1;
  1662   0015F2  6840               	setf	_dis2^0,c
  1663   0015F4  6841               	setf	(_dis2+1)^0,c
  1664   0015F6                     i1l115:
  1665                           
  1666                           ;main.c: 305:                if((SIG % 2) == 0){
  1667   0015F6  B049               	btfsc	_SIG^0,0,c
  1668   0015F8  EF00  F00B         	goto	i1u180_21
  1669   0015FC  EF02  F00B         	goto	i1u180_20
  1670   001600                     i1u180_21:
  1671   001600  EF18  F00B         	goto	i1l2059
  1672   001604                     i1u180_20:
  1673   001604                     
  1674                           ;main.c: 306:                 sumando1= (((dis2+1)*10)+(dis1+1));
  1675   001604  C040  F001         	movff	_dis2,___wmul@multiplier
  1676   001608  C041  F002         	movff	_dis2+1,___wmul@multiplier+1
  1677   00160C  0E00               	movlw	0
  1678   00160E  6E04               	movwf	(___wmul@multiplicand+1)^0,c
  1679   001610  0E0A               	movlw	10
  1680   001612  6E03               	movwf	___wmul@multiplicand^0,c
  1681   001614  EC9C  F012         	call	___wmul	;wreg free
  1682   001618  5042               	movf	_dis1^0,w,c
  1683   00161A  2601               	addwf	?___wmul^0,f,c
  1684   00161C  5043               	movf	(_dis1+1)^0,w,c
  1685   00161E  2202               	addwfc	(?___wmul+1)^0,f,c
  1686   001620  0E0B               	movlw	11
  1687   001622  2401               	addwf	?___wmul^0,w,c
  1688   001624  6E38               	movwf	_sumando1^0,c
  1689   001626  0E00               	movlw	0
  1690   001628  2002               	addwfc	(?___wmul+1)^0,w,c
  1691   00162A  6E39               	movwf	(_sumando1+1)^0,c
  1692                           
  1693                           ;main.c: 307:                 }
  1694   00162C  EF32  F00B         	goto	i1l2061
  1695   001630                     i1l2059:
  1696                           
  1697                           ;main.c: 309:                  sumando1= -(((dis2+1)*10)+(dis1+1));
  1698   001630  C040  F001         	movff	_dis2,___wmul@multiplier
  1699   001634  C041  F002         	movff	_dis2+1,___wmul@multiplier+1
  1700   001638  0E00               	movlw	0
  1701   00163A  6E04               	movwf	(___wmul@multiplicand+1)^0,c
  1702   00163C  0E0A               	movlw	10
  1703   00163E  6E03               	movwf	___wmul@multiplicand^0,c
  1704   001640  EC9C  F012         	call	___wmul	;wreg free
  1705   001644  5042               	movf	_dis1^0,w,c
  1706   001646  2601               	addwf	?___wmul^0,f,c
  1707   001648  5043               	movf	(_dis1+1)^0,w,c
  1708   00164A  2202               	addwfc	(?___wmul+1)^0,f,c
  1709   00164C  0E0B               	movlw	11
  1710   00164E  2601               	addwf	?___wmul^0,f,c
  1711   001650  0E00               	movlw	0
  1712   001652  2202               	addwfc	(?___wmul+1)^0,f,c
  1713   001654  1E01               	comf	?___wmul^0,f,c
  1714   001656  1E02               	comf	(?___wmul+1)^0,f,c
  1715   001658  4A01               	infsnz	?___wmul^0,f,c
  1716   00165A  2A02               	incf	(?___wmul+1)^0,f,c
  1717   00165C  C001  F038         	movff	?___wmul,_sumando1
  1718   001660  C002  F039         	movff	?___wmul+1,_sumando1+1
  1719   001664                     i1l2061:
  1720                           
  1721                           ;main.c: 312:                REINICIO=0;
  1722   001664  0E00               	movlw	0
  1723   001666  6E48               	movwf	_REINICIO^0,c
  1724   001668                     
  1725                           ;main.c: 313:                 SIG=0;
  1726   001668  0E00               	movlw	0
  1727   00166A  6E49               	movwf	_SIG^0,c
  1728   00166C                     
  1729                           ;main.c: 314:                 bandera1=0;
  1730   00166C  0E00               	movlw	0
  1731   00166E  6E45               	movwf	(_bandera1+1)^0,c
  1732   001670  0E00               	movlw	0
  1733   001672  6E44               	movwf	_bandera1^0,c
  1734   001674                     
  1735                           ;main.c: 315:                 cambio1=0;
  1736   001674  0E00               	movlw	0
  1737   001676  6E4A               	movwf	_cambio1^0,c
  1738   001678                     
  1739                           ;main.c: 316:                 dis1=10;
  1740   001678  0E00               	movlw	0
  1741   00167A  6E43               	movwf	(_dis1+1)^0,c
  1742   00167C  0E0A               	movlw	10
  1743   00167E  6E42               	movwf	_dis1^0,c
  1744   001680                     
  1745                           ;main.c: 317:                 dis2=10;
  1746   001680  0E00               	movlw	0
  1747   001682  6E41               	movwf	(_dis2+1)^0,c
  1748   001684  0E0A               	movlw	10
  1749   001686  6E40               	movwf	_dis2^0,c
  1750   001688                     
  1751                           ;main.c: 318:                 dis3=10;
  1752   001688  0E00               	movlw	0
  1753   00168A  6E3F               	movwf	(_dis3+1)^0,c
  1754   00168C  0E0A               	movlw	10
  1755   00168E  6E3E               	movwf	_dis3^0,c
  1756   001690                     
  1757                           ;main.c: 319:                 dis4=10;
  1758   001690  0E00               	movlw	0
  1759   001692  6E3D               	movwf	(_dis4+1)^0,c
  1760   001694  0E0A               	movlw	10
  1761   001696  6E3C               	movwf	_dis4^0,c
  1762   001698                     
  1763                           ;main.c: 320:             _delay((unsigned long)((10)*(48000000/4000.0)));
  1764   001698  0E9C               	movlw	156
  1765   00169A  6E21               	movwf	??_lint^0,c
  1766   00169C  0ED7               	movlw	215
  1767   00169E                     i1u228_27:
  1768   00169E  2EE8               	decfsz	wreg,f,c
  1769   0016A0  D7FE               	bra	i1u228_27
  1770   0016A2  2E21               	decfsz	??_lint^0,f,c
  1771   0016A4  D7FC               	bra	i1u228_27
  1772   0016A6  0000               	nop	
  1773   0016A8                     i1l2079:
  1774                           
  1775                           ;main.c: 326:             if(ope==1 & contador==2){
  1776   0016A8  0447               	decf	_ope^0,w,c
  1777   0016AA  A4D8               	btfss	status,2,c
  1778   0016AC  EF5A  F00B         	goto	i1u181_21
  1779   0016B0  EF5C  F00B         	goto	i1u181_20
  1780   0016B4                     i1u181_21:
  1781   0016B4  EF77  F00C         	goto	i1l2135
  1782   0016B8                     i1u181_20:
  1783   0016B8  0E02               	movlw	2
  1784   0016BA  1834               	xorwf	_contador^0,w,c
  1785   0016BC  1035               	iorwf	(_contador+1)^0,w,c
  1786   0016BE  A4D8               	btfss	status,2,c
  1787   0016C0  EF64  F00B         	goto	i1u182_21
  1788   0016C4  EF66  F00B         	goto	i1u182_20
  1789   0016C8                     i1u182_21:
  1790   0016C8  EF77  F00C         	goto	i1l2135
  1791   0016CC                     i1u182_20:
  1792   0016CC                     
  1793                           ;main.c: 328:             if(dis1==9){
  1794   0016CC  0E09               	movlw	9
  1795   0016CE  1842               	xorwf	_dis1^0,w,c
  1796   0016D0  1043               	iorwf	(_dis1+1)^0,w,c
  1797   0016D2  A4D8               	btfss	status,2,c
  1798   0016D4  EF6E  F00B         	goto	i1u183_21
  1799   0016D8  EF70  F00B         	goto	i1u183_20
  1800   0016DC                     i1u183_21:
  1801   0016DC  EF72  F00B         	goto	i1l2087
  1802   0016E0                     i1u183_20:
  1803   0016E0                     
  1804                           ;main.c: 329:                 dis1=-1;
  1805   0016E0  6842               	setf	_dis1^0,c
  1806   0016E2  6843               	setf	(_dis1+1)^0,c
  1807   0016E4                     i1l2087:
  1808                           
  1809                           ;main.c: 331:             if(dis2==9){
  1810   0016E4  0E09               	movlw	9
  1811   0016E6  1840               	xorwf	_dis2^0,w,c
  1812   0016E8  1041               	iorwf	(_dis2+1)^0,w,c
  1813   0016EA  A4D8               	btfss	status,2,c
  1814   0016EC  EF7A  F00B         	goto	i1u184_21
  1815   0016F0  EF7C  F00B         	goto	i1u184_20
  1816   0016F4                     i1u184_21:
  1817   0016F4  EF7E  F00B         	goto	i1l120
  1818   0016F8                     i1u184_20:
  1819   0016F8                     
  1820                           ;main.c: 332:                 dis2=-1;
  1821   0016F8  6840               	setf	_dis2^0,c
  1822   0016FA  6841               	setf	(_dis2+1)^0,c
  1823   0016FC                     i1l120:
  1824                           
  1825                           ;main.c: 335:                if((SIG % 2) == 0){
  1826   0016FC  B049               	btfsc	_SIG^0,0,c
  1827   0016FE  EF83  F00B         	goto	i1u185_21
  1828   001702  EF85  F00B         	goto	i1u185_20
  1829   001706                     i1u185_21:
  1830   001706  EF9B  F00B         	goto	i1l2093
  1831   00170A                     i1u185_20:
  1832   00170A                     
  1833                           ;main.c: 336:                 sumando2 = (((dis2+1)*10)+(dis1+1));
  1834   00170A  C040  F001         	movff	_dis2,___wmul@multiplier
  1835   00170E  C041  F002         	movff	_dis2+1,___wmul@multiplier+1
  1836   001712  0E00               	movlw	0
  1837   001714  6E04               	movwf	(___wmul@multiplicand+1)^0,c
  1838   001716  0E0A               	movlw	10
  1839   001718  6E03               	movwf	___wmul@multiplicand^0,c
  1840   00171A  EC9C  F012         	call	___wmul	;wreg free
  1841   00171E  5042               	movf	_dis1^0,w,c
  1842   001720  2601               	addwf	?___wmul^0,f,c
  1843   001722  5043               	movf	(_dis1+1)^0,w,c
  1844   001724  2202               	addwfc	(?___wmul+1)^0,f,c
  1845   001726  0E0B               	movlw	11
  1846   001728  2401               	addwf	?___wmul^0,w,c
  1847   00172A  6E36               	movwf	_sumando2^0,c
  1848   00172C  0E00               	movlw	0
  1849   00172E  2002               	addwfc	(?___wmul+1)^0,w,c
  1850   001730  6E37               	movwf	(_sumando2+1)^0,c
  1851                           
  1852                           ;main.c: 337:                 }
  1853   001732  EFB5  F00B         	goto	i1l2095
  1854   001736                     i1l2093:
  1855                           
  1856                           ;main.c: 339:                  sumando2 = -((((dis2+1)*10)+(dis1+1)));
  1857   001736  C040  F001         	movff	_dis2,___wmul@multiplier
  1858   00173A  C041  F002         	movff	_dis2+1,___wmul@multiplier+1
  1859   00173E  0E00               	movlw	0
  1860   001740  6E04               	movwf	(___wmul@multiplicand+1)^0,c
  1861   001742  0E0A               	movlw	10
  1862   001744  6E03               	movwf	___wmul@multiplicand^0,c
  1863   001746  EC9C  F012         	call	___wmul	;wreg free
  1864   00174A  5042               	movf	_dis1^0,w,c
  1865   00174C  2601               	addwf	?___wmul^0,f,c
  1866   00174E  5043               	movf	(_dis1+1)^0,w,c
  1867   001750  2202               	addwfc	(?___wmul+1)^0,f,c
  1868   001752  0E0B               	movlw	11
  1869   001754  2601               	addwf	?___wmul^0,f,c
  1870   001756  0E00               	movlw	0
  1871   001758  2202               	addwfc	(?___wmul+1)^0,f,c
  1872   00175A  1E01               	comf	?___wmul^0,f,c
  1873   00175C  1E02               	comf	(?___wmul+1)^0,f,c
  1874   00175E  4A01               	infsnz	?___wmul^0,f,c
  1875   001760  2A02               	incf	(?___wmul+1)^0,f,c
  1876   001762  C001  F036         	movff	?___wmul,_sumando2
  1877   001766  C002  F037         	movff	?___wmul+1,_sumando2+1
  1878   00176A                     i1l2095:
  1879                           
  1880                           ;main.c: 342:                REINICIO=0;
  1881   00176A  0E00               	movlw	0
  1882   00176C  6E48               	movwf	_REINICIO^0,c
  1883   00176E                     
  1884                           ;main.c: 343:                 SIG=0;
  1885   00176E  0E00               	movlw	0
  1886   001770  6E49               	movwf	_SIG^0,c
  1887   001772                     
  1888                           ;main.c: 344:                 bandera1=1;
  1889   001772  0E00               	movlw	0
  1890   001774  6E45               	movwf	(_bandera1+1)^0,c
  1891   001776  0E01               	movlw	1
  1892   001778  6E44               	movwf	_bandera1^0,c
  1893   00177A                     
  1894                           ;main.c: 345:                 cambio1=0;
  1895   00177A  0E00               	movlw	0
  1896   00177C  6E4A               	movwf	_cambio1^0,c
  1897   00177E                     
  1898                           ;main.c: 346:                 contador++;
  1899   00177E  4A34               	infsnz	_contador^0,f,c
  1900   001780  2A35               	incf	(_contador+1)^0,f,c
  1901   001782                     
  1902                           ;main.c: 347:                 resultado= sumando1 + sumando2;
  1903   001782  5036               	movf	_sumando2^0,w,c
  1904   001784  2438               	addwf	_sumando1^0,w,c
  1905   001786  6E32               	movwf	_resultado^0,c
  1906   001788  5037               	movf	(_sumando2+1)^0,w,c
  1907   00178A  2039               	addwfc	(_sumando1+1)^0,w,c
  1908   00178C  6E33               	movwf	(_resultado+1)^0,c
  1909   00178E                     
  1910                           ;main.c: 348:                 resultadoabs= fabsf(resultado);
  1911   00178E  C032  F001         	movff	_resultado,___xxtofl@val
  1912   001792  C033  F002         	movff	_resultado+1,___xxtofl@val+1
  1913   001796  0E00               	movlw	0
  1914   001798  BE02               	btfsc	(___xxtofl@val+1)^0,7,c
  1915   00179A  0EFF               	movlw	-1
  1916   00179C  6E03               	movwf	(___xxtofl@val+2)^0,c
  1917   00179E  6E04               	movwf	(___xxtofl@val+3)^0,c
  1918   0017A0  0E01               	movlw	1
  1919   0017A2  EC2C  F010         	call	___xxtofl
  1920   0017A6  C001  F00F         	movff	?___xxtofl,fabsf@x
  1921   0017AA  C002  F010         	movff	?___xxtofl+1,fabsf@x+1
  1922   0017AE  C003  F011         	movff	?___xxtofl+2,fabsf@x+2
  1923   0017B2  C004  F012         	movff	?___xxtofl+3,fabsf@x+3
  1924   0017B6  EC82  F012         	call	_fabsf	;wreg free
  1925   0017BA  C00F  F017         	movff	?_fabsf,___fltol@f1
  1926   0017BE  C010  F018         	movff	?_fabsf+1,___fltol@f1+1
  1927   0017C2  C011  F019         	movff	?_fabsf+2,___fltol@f1+2
  1928   0017C6  C012  F01A         	movff	?_fabsf+3,___fltol@f1+3
  1929   0017CA  EC06  F011         	call	___fltol	;wreg free
  1930   0017CE  C017  F030         	movff	?___fltol,_resultadoabs
  1931   0017D2  C018  F031         	movff	?___fltol+1,_resultadoabs+1
  1932   0017D6                     
  1933                           ;main.c: 350:                 dis1 = ((resultadoabs % 10)-1);
  1934   0017D6  C030  F009         	movff	_resultadoabs,___awmod@dividend
  1935   0017DA  C031  F00A         	movff	_resultadoabs+1,___awmod@dividend+1
  1936   0017DE  0E00               	movlw	0
  1937   0017E0  6E0C               	movwf	(___awmod@divisor+1)^0,c
  1938   0017E2  0E0A               	movlw	10
  1939   0017E4  6E0B               	movwf	___awmod@divisor^0,c
  1940   0017E6  ECEB  F011         	call	___awmod	;wreg free
  1941   0017EA  0EFF               	movlw	255
  1942   0017EC  2409               	addwf	?___awmod^0,w,c
  1943   0017EE  6E42               	movwf	_dis1^0,c
  1944   0017F0  0EFF               	movlw	255
  1945   0017F2  200A               	addwfc	(?___awmod+1)^0,w,c
  1946   0017F4  6E43               	movwf	(_dis1+1)^0,c
  1947   0017F6                     
  1948                           ;main.c: 351:                 if(dis1+1==0){
  1949   0017F6  0E01               	movlw	1
  1950   0017F8  2442               	addwf	_dis1^0,w,c
  1951   0017FA  6E21               	movwf	??_lint^0,c
  1952   0017FC  0E00               	movlw	0
  1953   0017FE  2043               	addwfc	(_dis1+1)^0,w,c
  1954   001800  6E22               	movwf	(??_lint+1)^0,c
  1955   001802  5021               	movf	??_lint^0,w,c
  1956   001804  1022               	iorwf	(??_lint+1)^0,w,c
  1957   001806  A4D8               	btfss	status,2,c
  1958   001808  EF08  F00C         	goto	i1u186_21
  1959   00180C  EF0A  F00C         	goto	i1u186_20
  1960   001810                     i1u186_21:
  1961   001810  EF0E  F00C         	goto	i1l2115
  1962   001814                     i1u186_20:
  1963   001814                     
  1964                           ;main.c: 352:                     dis1=9;
  1965   001814  0E00               	movlw	0
  1966   001816  6E43               	movwf	(_dis1+1)^0,c
  1967   001818  0E09               	movlw	9
  1968   00181A  6E42               	movwf	_dis1^0,c
  1969   00181C                     i1l2115:
  1970                           
  1971                           ;main.c: 355:                 dis2 = (((resultadoabs / 10) % 10)-1) ;
  1972   00181C  0E00               	movlw	0
  1973   00181E  6E04               	movwf	(___awdiv@divisor+1)^0,c
  1974   001820  0E0A               	movlw	10
  1975   001822  6E03               	movwf	___awdiv@divisor^0,c
  1976   001824  C030  F001         	movff	_resultadoabs,___awdiv@dividend
  1977   001828  C031  F002         	movff	_resultadoabs+1,___awdiv@dividend+1
  1978   00182C  EC89  F011         	call	___awdiv	;wreg free
  1979   001830  C001  F009         	movff	?___awdiv,___awmod@dividend
  1980   001834  C002  F00A         	movff	?___awdiv+1,___awmod@dividend+1
  1981   001838  0E00               	movlw	0
  1982   00183A  6E0C               	movwf	(___awmod@divisor+1)^0,c
  1983   00183C  0E0A               	movlw	10
  1984   00183E  6E0B               	movwf	___awmod@divisor^0,c
  1985   001840  ECEB  F011         	call	___awmod	;wreg free
  1986   001844  0EFF               	movlw	255
  1987   001846  2409               	addwf	?___awmod^0,w,c
  1988   001848  6E40               	movwf	_dis2^0,c
  1989   00184A  0EFF               	movlw	255
  1990   00184C  200A               	addwfc	(?___awmod+1)^0,w,c
  1991   00184E  6E41               	movwf	(_dis2+1)^0,c
  1992   001850                     
  1993                           ;main.c: 356:                 if(dis2+1==0){
  1994   001850  0E01               	movlw	1
  1995   001852  2440               	addwf	_dis2^0,w,c
  1996   001854  6E21               	movwf	??_lint^0,c
  1997   001856  0E00               	movlw	0
  1998   001858  2041               	addwfc	(_dis2+1)^0,w,c
  1999   00185A  6E22               	movwf	(??_lint+1)^0,c
  2000   00185C  5021               	movf	??_lint^0,w,c
  2001   00185E  1022               	iorwf	(??_lint+1)^0,w,c
  2002   001860  A4D8               	btfss	status,2,c
  2003   001862  EF35  F00C         	goto	i1u187_21
  2004   001866  EF37  F00C         	goto	i1u187_20
  2005   00186A                     i1u187_21:
  2006   00186A  EF3B  F00C         	goto	i1l2121
  2007   00186E                     i1u187_20:
  2008   00186E                     
  2009                           ;main.c: 357:                     dis2=9;
  2010   00186E  0E00               	movlw	0
  2011   001870  6E41               	movwf	(_dis2+1)^0,c
  2012   001872  0E09               	movlw	9
  2013   001874  6E40               	movwf	_dis2^0,c
  2014   001876                     i1l2121:
  2015                           
  2016                           ;main.c: 360:                 dis3 =((resultadoabs/100)-1);
  2017   001876  C030  F001         	movff	_resultadoabs,___awdiv@dividend
  2018   00187A  C031  F002         	movff	_resultadoabs+1,___awdiv@dividend+1
  2019   00187E  0E00               	movlw	0
  2020   001880  6E04               	movwf	(___awdiv@divisor+1)^0,c
  2021   001882  0E64               	movlw	100
  2022   001884  6E03               	movwf	___awdiv@divisor^0,c
  2023   001886  EC89  F011         	call	___awdiv	;wreg free
  2024   00188A  0EFF               	movlw	255
  2025   00188C  2401               	addwf	?___awdiv^0,w,c
  2026   00188E  6E3E               	movwf	_dis3^0,c
  2027   001890  0EFF               	movlw	255
  2028   001892  2002               	addwfc	(?___awdiv+1)^0,w,c
  2029   001894  6E3F               	movwf	(_dis3+1)^0,c
  2030   001896                     
  2031                           ;main.c: 361:                 if(dis3+1==0){
  2032   001896  0E01               	movlw	1
  2033   001898  243E               	addwf	_dis3^0,w,c
  2034   00189A  6E21               	movwf	??_lint^0,c
  2035   00189C  0E00               	movlw	0
  2036   00189E  203F               	addwfc	(_dis3+1)^0,w,c
  2037   0018A0  6E22               	movwf	(??_lint+1)^0,c
  2038   0018A2  5021               	movf	??_lint^0,w,c
  2039   0018A4  1022               	iorwf	(??_lint+1)^0,w,c
  2040   0018A6  A4D8               	btfss	status,2,c
  2041   0018A8  EF58  F00C         	goto	i1u188_21
  2042   0018AC  EF5A  F00C         	goto	i1u188_20
  2043   0018B0                     i1u188_21:
  2044   0018B0  EF5E  F00C         	goto	i1l2127
  2045   0018B4                     i1u188_20:
  2046   0018B4                     
  2047                           ;main.c: 362:                     dis3=10;
  2048   0018B4  0E00               	movlw	0
  2049   0018B6  6E3F               	movwf	(_dis3+1)^0,c
  2050   0018B8  0E0A               	movlw	10
  2051   0018BA  6E3E               	movwf	_dis3^0,c
  2052   0018BC                     i1l2127:
  2053                           
  2054                           ;main.c: 365:                 if (resultado>=0){
  2055   0018BC  BE33               	btfsc	(_resultado+1)^0,7,c
  2056   0018BE  EF63  F00C         	goto	i1u189_21
  2057   0018C2  EF65  F00C         	goto	i1u189_20
  2058   0018C6                     i1u189_21:
  2059   0018C6  EF6B  F00C         	goto	i1l2131
  2060   0018CA                     i1u189_20:
  2061   0018CA                     
  2062                           ;main.c: 366:                     dis4=10;
  2063   0018CA  0E00               	movlw	0
  2064   0018CC  6E3D               	movwf	(_dis4+1)^0,c
  2065   0018CE  0E0A               	movlw	10
  2066   0018D0  6E3C               	movwf	_dis4^0,c
  2067                           
  2068                           ;main.c: 367:                 }
  2069   0018D2  EF6F  F00C         	goto	i1l2133
  2070   0018D6                     i1l2131:
  2071                           
  2072                           ;main.c: 369:                     dis4=13;
  2073   0018D6  0E00               	movlw	0
  2074   0018D8  6E3D               	movwf	(_dis4+1)^0,c
  2075   0018DA  0E0D               	movlw	13
  2076   0018DC  6E3C               	movwf	_dis4^0,c
  2077   0018DE                     i1l2133:
  2078                           
  2079                           ;main.c: 372:             _delay((unsigned long)((10)*(48000000/4000.0)));
  2080   0018DE  0E9C               	movlw	156
  2081   0018E0  6E21               	movwf	??_lint^0,c
  2082   0018E2  0ED7               	movlw	215
  2083   0018E4                     i1u229_27:
  2084   0018E4  2EE8               	decfsz	wreg,f,c
  2085   0018E6  D7FE               	bra	i1u229_27
  2086   0018E8  2E21               	decfsz	??_lint^0,f,c
  2087   0018EA  D7FC               	bra	i1u229_27
  2088   0018EC  0000               	nop	
  2089   0018EE                     i1l2135:
  2090                           
  2091                           ;main.c: 377:             if(REINICIO==2 & ope==4 & contador==1){
  2092   0018EE  0E02               	movlw	2
  2093   0018F0  1848               	xorwf	_REINICIO^0,w,c
  2094   0018F2  A4D8               	btfss	status,2,c
  2095   0018F4  EF7E  F00C         	goto	i1u190_21
  2096   0018F8  EF80  F00C         	goto	i1u190_20
  2097   0018FC                     i1u190_21:
  2098   0018FC  EF03  F00D         	goto	i1l2171
  2099   001900                     i1u190_20:
  2100   001900  0E04               	movlw	4
  2101   001902  1847               	xorwf	_ope^0,w,c
  2102   001904  A4D8               	btfss	status,2,c
  2103   001906  EF87  F00C         	goto	i1u191_21
  2104   00190A  EF89  F00C         	goto	i1u191_20
  2105   00190E                     i1u191_21:
  2106   00190E  EF03  F00D         	goto	i1l2171
  2107   001912                     i1u191_20:
  2108   001912  0434               	decf	_contador^0,w,c
  2109   001914  1035               	iorwf	(_contador+1)^0,w,c
  2110   001916  A4D8               	btfss	status,2,c
  2111   001918  EF90  F00C         	goto	i1u192_21
  2112   00191C  EF92  F00C         	goto	i1u192_20
  2113   001920                     i1u192_21:
  2114   001920  EF03  F00D         	goto	i1l2171
  2115   001924                     i1u192_20:
  2116   001924                     
  2117                           ;main.c: 379:             if(dis1==9){
  2118   001924  0E09               	movlw	9
  2119   001926  1842               	xorwf	_dis1^0,w,c
  2120   001928  1043               	iorwf	(_dis1+1)^0,w,c
  2121   00192A  A4D8               	btfss	status,2,c
  2122   00192C  EF9A  F00C         	goto	i1u193_21
  2123   001930  EF9C  F00C         	goto	i1u193_20
  2124   001934                     i1u193_21:
  2125   001934  EF9E  F00C         	goto	i1l2145
  2126   001938                     i1u193_20:
  2127   001938                     
  2128                           ;main.c: 380:                 dis1=-1;
  2129   001938  6842               	setf	_dis1^0,c
  2130   00193A  6843               	setf	(_dis1+1)^0,c
  2131   00193C                     i1l2145:
  2132                           
  2133                           ;main.c: 382:             if(dis2==9){
  2134   00193C  0E09               	movlw	9
  2135   00193E  1840               	xorwf	_dis2^0,w,c
  2136   001940  1041               	iorwf	(_dis2+1)^0,w,c
  2137   001942  A4D8               	btfss	status,2,c
  2138   001944  EFA6  F00C         	goto	i1u194_21
  2139   001948  EFA8  F00C         	goto	i1u194_20
  2140   00194C                     i1u194_21:
  2141   00194C  EFAA  F00C         	goto	i1l130
  2142   001950                     i1u194_20:
  2143   001950                     
  2144                           ;main.c: 383:                 dis2=-1;
  2145   001950  6840               	setf	_dis2^0,c
  2146   001952  6841               	setf	(_dis2+1)^0,c
  2147   001954                     i1l130:
  2148                           
  2149                           ;main.c: 386:                if((SIG % 2) == 0){
  2150   001954  B049               	btfsc	_SIG^0,0,c
  2151   001956  EFAF  F00C         	goto	i1u195_21
  2152   00195A  EFB1  F00C         	goto	i1u195_20
  2153   00195E                     i1u195_21:
  2154   00195E  EFC7  F00C         	goto	i1l2151
  2155   001962                     i1u195_20:
  2156   001962                     
  2157                           ;main.c: 387:                 sumando1= (((dis2+1)*10)+(dis1+1));
  2158   001962  C040  F001         	movff	_dis2,___wmul@multiplier
  2159   001966  C041  F002         	movff	_dis2+1,___wmul@multiplier+1
  2160   00196A  0E00               	movlw	0
  2161   00196C  6E04               	movwf	(___wmul@multiplicand+1)^0,c
  2162   00196E  0E0A               	movlw	10
  2163   001970  6E03               	movwf	___wmul@multiplicand^0,c
  2164   001972  EC9C  F012         	call	___wmul	;wreg free
  2165   001976  5042               	movf	_dis1^0,w,c
  2166   001978  2601               	addwf	?___wmul^0,f,c
  2167   00197A  5043               	movf	(_dis1+1)^0,w,c
  2168   00197C  2202               	addwfc	(?___wmul+1)^0,f,c
  2169   00197E  0E0B               	movlw	11
  2170   001980  2401               	addwf	?___wmul^0,w,c
  2171   001982  6E38               	movwf	_sumando1^0,c
  2172   001984  0E00               	movlw	0
  2173   001986  2002               	addwfc	(?___wmul+1)^0,w,c
  2174   001988  6E39               	movwf	(_sumando1+1)^0,c
  2175                           
  2176                           ;main.c: 388:                 }
  2177   00198A  EFE1  F00C         	goto	i1l2153
  2178   00198E                     i1l2151:
  2179                           
  2180                           ;main.c: 390:                  sumando1= -(((dis2+1)*10)+(dis1+1));
  2181   00198E  C040  F001         	movff	_dis2,___wmul@multiplier
  2182   001992  C041  F002         	movff	_dis2+1,___wmul@multiplier+1
  2183   001996  0E00               	movlw	0
  2184   001998  6E04               	movwf	(___wmul@multiplicand+1)^0,c
  2185   00199A  0E0A               	movlw	10
  2186   00199C  6E03               	movwf	___wmul@multiplicand^0,c
  2187   00199E  EC9C  F012         	call	___wmul	;wreg free
  2188   0019A2  5042               	movf	_dis1^0,w,c
  2189   0019A4  2601               	addwf	?___wmul^0,f,c
  2190   0019A6  5043               	movf	(_dis1+1)^0,w,c
  2191   0019A8  2202               	addwfc	(?___wmul+1)^0,f,c
  2192   0019AA  0E0B               	movlw	11
  2193   0019AC  2601               	addwf	?___wmul^0,f,c
  2194   0019AE  0E00               	movlw	0
  2195   0019B0  2202               	addwfc	(?___wmul+1)^0,f,c
  2196   0019B2  1E01               	comf	?___wmul^0,f,c
  2197   0019B4  1E02               	comf	(?___wmul+1)^0,f,c
  2198   0019B6  4A01               	infsnz	?___wmul^0,f,c
  2199   0019B8  2A02               	incf	(?___wmul+1)^0,f,c
  2200   0019BA  C001  F038         	movff	?___wmul,_sumando1
  2201   0019BE  C002  F039         	movff	?___wmul+1,_sumando1+1
  2202   0019C2                     i1l2153:
  2203                           
  2204                           ;main.c: 393:                REINICIO=0;
  2205   0019C2  0E00               	movlw	0
  2206   0019C4  6E48               	movwf	_REINICIO^0,c
  2207   0019C6                     
  2208                           ;main.c: 394:                 SIG=0;
  2209   0019C6  0E00               	movlw	0
  2210   0019C8  6E49               	movwf	_SIG^0,c
  2211   0019CA                     
  2212                           ;main.c: 395:                 bandera1=0;
  2213   0019CA  0E00               	movlw	0
  2214   0019CC  6E45               	movwf	(_bandera1+1)^0,c
  2215   0019CE  0E00               	movlw	0
  2216   0019D0  6E44               	movwf	_bandera1^0,c
  2217   0019D2                     
  2218                           ;main.c: 396:                 cambio1=0;
  2219   0019D2  0E00               	movlw	0
  2220   0019D4  6E4A               	movwf	_cambio1^0,c
  2221   0019D6                     
  2222                           ;main.c: 397:                 dis1=10;
  2223   0019D6  0E00               	movlw	0
  2224   0019D8  6E43               	movwf	(_dis1+1)^0,c
  2225   0019DA  0E0A               	movlw	10
  2226   0019DC  6E42               	movwf	_dis1^0,c
  2227   0019DE                     
  2228                           ;main.c: 398:                 dis2=10;
  2229   0019DE  0E00               	movlw	0
  2230   0019E0  6E41               	movwf	(_dis2+1)^0,c
  2231   0019E2  0E0A               	movlw	10
  2232   0019E4  6E40               	movwf	_dis2^0,c
  2233   0019E6                     
  2234                           ;main.c: 399:                 dis3=10;
  2235   0019E6  0E00               	movlw	0
  2236   0019E8  6E3F               	movwf	(_dis3+1)^0,c
  2237   0019EA  0E0A               	movlw	10
  2238   0019EC  6E3E               	movwf	_dis3^0,c
  2239   0019EE                     
  2240                           ;main.c: 400:                 dis4=10;
  2241   0019EE  0E00               	movlw	0
  2242   0019F0  6E3D               	movwf	(_dis4+1)^0,c
  2243   0019F2  0E0A               	movlw	10
  2244   0019F4  6E3C               	movwf	_dis4^0,c
  2245   0019F6                     
  2246                           ;main.c: 401:             _delay((unsigned long)((10)*(48000000/4000.0)));
  2247   0019F6  0E9C               	movlw	156
  2248   0019F8  6E21               	movwf	??_lint^0,c
  2249   0019FA  0ED7               	movlw	215
  2250   0019FC                     i1u230_27:
  2251   0019FC  2EE8               	decfsz	wreg,f,c
  2252   0019FE  D7FE               	bra	i1u230_27
  2253   001A00  2E21               	decfsz	??_lint^0,f,c
  2254   001A02  D7FC               	bra	i1u230_27
  2255   001A04  0000               	nop	
  2256   001A06                     i1l2171:
  2257                           
  2258                           ;main.c: 407:             if(ope==4 & contador==2){
  2259   001A06  0E04               	movlw	4
  2260   001A08  1847               	xorwf	_ope^0,w,c
  2261   001A0A  A4D8               	btfss	status,2,c
  2262   001A0C  EF0A  F00D         	goto	i1u196_21
  2263   001A10  EF0C  F00D         	goto	i1u196_20
  2264   001A14                     i1u196_21:
  2265   001A14  EF27  F00E         	goto	i1l2227
  2266   001A18                     i1u196_20:
  2267   001A18  0E02               	movlw	2
  2268   001A1A  1834               	xorwf	_contador^0,w,c
  2269   001A1C  1035               	iorwf	(_contador+1)^0,w,c
  2270   001A1E  A4D8               	btfss	status,2,c
  2271   001A20  EF14  F00D         	goto	i1u197_21
  2272   001A24  EF16  F00D         	goto	i1u197_20
  2273   001A28                     i1u197_21:
  2274   001A28  EF27  F00E         	goto	i1l2227
  2275   001A2C                     i1u197_20:
  2276   001A2C                     
  2277                           ;main.c: 409:             if(dis1==9){
  2278   001A2C  0E09               	movlw	9
  2279   001A2E  1842               	xorwf	_dis1^0,w,c
  2280   001A30  1043               	iorwf	(_dis1+1)^0,w,c
  2281   001A32  A4D8               	btfss	status,2,c
  2282   001A34  EF1E  F00D         	goto	i1u198_21
  2283   001A38  EF20  F00D         	goto	i1u198_20
  2284   001A3C                     i1u198_21:
  2285   001A3C  EF22  F00D         	goto	i1l2179
  2286   001A40                     i1u198_20:
  2287   001A40                     
  2288                           ;main.c: 410:                 dis1=-1;
  2289   001A40  6842               	setf	_dis1^0,c
  2290   001A42  6843               	setf	(_dis1+1)^0,c
  2291   001A44                     i1l2179:
  2292                           
  2293                           ;main.c: 412:             if(dis2==9){
  2294   001A44  0E09               	movlw	9
  2295   001A46  1840               	xorwf	_dis2^0,w,c
  2296   001A48  1041               	iorwf	(_dis2+1)^0,w,c
  2297   001A4A  A4D8               	btfss	status,2,c
  2298   001A4C  EF2A  F00D         	goto	i1u199_21
  2299   001A50  EF2C  F00D         	goto	i1u199_20
  2300   001A54                     i1u199_21:
  2301   001A54  EF2E  F00D         	goto	i1l135
  2302   001A58                     i1u199_20:
  2303   001A58                     
  2304                           ;main.c: 413:                 dis2=-1;
  2305   001A58  6840               	setf	_dis2^0,c
  2306   001A5A  6841               	setf	(_dis2+1)^0,c
  2307   001A5C                     i1l135:
  2308                           
  2309                           ;main.c: 416:                if((SIG % 2) == 0){
  2310   001A5C  B049               	btfsc	_SIG^0,0,c
  2311   001A5E  EF33  F00D         	goto	i1u200_21
  2312   001A62  EF35  F00D         	goto	i1u200_20
  2313   001A66                     i1u200_21:
  2314   001A66  EF4B  F00D         	goto	i1l2185
  2315   001A6A                     i1u200_20:
  2316   001A6A                     
  2317                           ;main.c: 417:                 sumando2 = (((dis2+1)*10)+(dis1+1));
  2318   001A6A  C040  F001         	movff	_dis2,___wmul@multiplier
  2319   001A6E  C041  F002         	movff	_dis2+1,___wmul@multiplier+1
  2320   001A72  0E00               	movlw	0
  2321   001A74  6E04               	movwf	(___wmul@multiplicand+1)^0,c
  2322   001A76  0E0A               	movlw	10
  2323   001A78  6E03               	movwf	___wmul@multiplicand^0,c
  2324   001A7A  EC9C  F012         	call	___wmul	;wreg free
  2325   001A7E  5042               	movf	_dis1^0,w,c
  2326   001A80  2601               	addwf	?___wmul^0,f,c
  2327   001A82  5043               	movf	(_dis1+1)^0,w,c
  2328   001A84  2202               	addwfc	(?___wmul+1)^0,f,c
  2329   001A86  0E0B               	movlw	11
  2330   001A88  2401               	addwf	?___wmul^0,w,c
  2331   001A8A  6E36               	movwf	_sumando2^0,c
  2332   001A8C  0E00               	movlw	0
  2333   001A8E  2002               	addwfc	(?___wmul+1)^0,w,c
  2334   001A90  6E37               	movwf	(_sumando2+1)^0,c
  2335                           
  2336                           ;main.c: 418:                 }
  2337   001A92  EF65  F00D         	goto	i1l2187
  2338   001A96                     i1l2185:
  2339                           
  2340                           ;main.c: 420:                  sumando2 = -((((dis2+1)*10)+(dis1+1)));
  2341   001A96  C040  F001         	movff	_dis2,___wmul@multiplier
  2342   001A9A  C041  F002         	movff	_dis2+1,___wmul@multiplier+1
  2343   001A9E  0E00               	movlw	0
  2344   001AA0  6E04               	movwf	(___wmul@multiplicand+1)^0,c
  2345   001AA2  0E0A               	movlw	10
  2346   001AA4  6E03               	movwf	___wmul@multiplicand^0,c
  2347   001AA6  EC9C  F012         	call	___wmul	;wreg free
  2348   001AAA  5042               	movf	_dis1^0,w,c
  2349   001AAC  2601               	addwf	?___wmul^0,f,c
  2350   001AAE  5043               	movf	(_dis1+1)^0,w,c
  2351   001AB0  2202               	addwfc	(?___wmul+1)^0,f,c
  2352   001AB2  0E0B               	movlw	11
  2353   001AB4  2601               	addwf	?___wmul^0,f,c
  2354   001AB6  0E00               	movlw	0
  2355   001AB8  2202               	addwfc	(?___wmul+1)^0,f,c
  2356   001ABA  1E01               	comf	?___wmul^0,f,c
  2357   001ABC  1E02               	comf	(?___wmul+1)^0,f,c
  2358   001ABE  4A01               	infsnz	?___wmul^0,f,c
  2359   001AC0  2A02               	incf	(?___wmul+1)^0,f,c
  2360   001AC2  C001  F036         	movff	?___wmul,_sumando2
  2361   001AC6  C002  F037         	movff	?___wmul+1,_sumando2+1
  2362   001ACA                     i1l2187:
  2363                           
  2364                           ;main.c: 423:                REINICIO=0;
  2365   001ACA  0E00               	movlw	0
  2366   001ACC  6E48               	movwf	_REINICIO^0,c
  2367   001ACE                     
  2368                           ;main.c: 424:                 SIG=0;
  2369   001ACE  0E00               	movlw	0
  2370   001AD0  6E49               	movwf	_SIG^0,c
  2371   001AD2                     
  2372                           ;main.c: 425:                 bandera1=1;
  2373   001AD2  0E00               	movlw	0
  2374   001AD4  6E45               	movwf	(_bandera1+1)^0,c
  2375   001AD6  0E01               	movlw	1
  2376   001AD8  6E44               	movwf	_bandera1^0,c
  2377   001ADA                     
  2378                           ;main.c: 426:                 cambio1=0;
  2379   001ADA  0E00               	movlw	0
  2380   001ADC  6E4A               	movwf	_cambio1^0,c
  2381   001ADE                     
  2382                           ;main.c: 427:                 contador++;
  2383   001ADE  4A34               	infsnz	_contador^0,f,c
  2384   001AE0  2A35               	incf	(_contador+1)^0,f,c
  2385   001AE2                     
  2386                           ;main.c: 428:                 resultado= sumando1 - sumando2;
  2387   001AE2  5036               	movf	_sumando2^0,w,c
  2388   001AE4  5C38               	subwf	_sumando1^0,w,c
  2389   001AE6  6E32               	movwf	_resultado^0,c
  2390   001AE8  5037               	movf	(_sumando2+1)^0,w,c
  2391   001AEA  5839               	subwfb	(_sumando1+1)^0,w,c
  2392   001AEC  6E33               	movwf	(_resultado+1)^0,c
  2393   001AEE                     
  2394                           ;main.c: 429:                 resultadoabs= fabsf(resultado);
  2395   001AEE  C032  F001         	movff	_resultado,___xxtofl@val
  2396   001AF2  C033  F002         	movff	_resultado+1,___xxtofl@val+1
  2397   001AF6  0E00               	movlw	0
  2398   001AF8  BE02               	btfsc	(___xxtofl@val+1)^0,7,c
  2399   001AFA  0EFF               	movlw	-1
  2400   001AFC  6E03               	movwf	(___xxtofl@val+2)^0,c
  2401   001AFE  6E04               	movwf	(___xxtofl@val+3)^0,c
  2402   001B00  0E01               	movlw	1
  2403   001B02  EC2C  F010         	call	___xxtofl
  2404   001B06  C001  F00F         	movff	?___xxtofl,fabsf@x
  2405   001B0A  C002  F010         	movff	?___xxtofl+1,fabsf@x+1
  2406   001B0E  C003  F011         	movff	?___xxtofl+2,fabsf@x+2
  2407   001B12  C004  F012         	movff	?___xxtofl+3,fabsf@x+3
  2408   001B16  EC82  F012         	call	_fabsf	;wreg free
  2409   001B1A  C00F  F017         	movff	?_fabsf,___fltol@f1
  2410   001B1E  C010  F018         	movff	?_fabsf+1,___fltol@f1+1
  2411   001B22  C011  F019         	movff	?_fabsf+2,___fltol@f1+2
  2412   001B26  C012  F01A         	movff	?_fabsf+3,___fltol@f1+3
  2413   001B2A  EC06  F011         	call	___fltol	;wreg free
  2414   001B2E  C017  F030         	movff	?___fltol,_resultadoabs
  2415   001B32  C018  F031         	movff	?___fltol+1,_resultadoabs+1
  2416   001B36                     
  2417                           ;main.c: 431:                 dis1 = ((resultadoabs % 10)-1);
  2418   001B36  C030  F009         	movff	_resultadoabs,___awmod@dividend
  2419   001B3A  C031  F00A         	movff	_resultadoabs+1,___awmod@dividend+1
  2420   001B3E  0E00               	movlw	0
  2421   001B40  6E0C               	movwf	(___awmod@divisor+1)^0,c
  2422   001B42  0E0A               	movlw	10
  2423   001B44  6E0B               	movwf	___awmod@divisor^0,c
  2424   001B46  ECEB  F011         	call	___awmod	;wreg free
  2425   001B4A  0EFF               	movlw	255
  2426   001B4C  2409               	addwf	?___awmod^0,w,c
  2427   001B4E  6E42               	movwf	_dis1^0,c
  2428   001B50  0EFF               	movlw	255
  2429   001B52  200A               	addwfc	(?___awmod+1)^0,w,c
  2430   001B54  6E43               	movwf	(_dis1+1)^0,c
  2431   001B56                     
  2432                           ;main.c: 432:                 if(dis1+1==0){
  2433   001B56  0E01               	movlw	1
  2434   001B58  2442               	addwf	_dis1^0,w,c
  2435   001B5A  6E21               	movwf	??_lint^0,c
  2436   001B5C  0E00               	movlw	0
  2437   001B5E  2043               	addwfc	(_dis1+1)^0,w,c
  2438   001B60  6E22               	movwf	(??_lint+1)^0,c
  2439   001B62  5021               	movf	??_lint^0,w,c
  2440   001B64  1022               	iorwf	(??_lint+1)^0,w,c
  2441   001B66  A4D8               	btfss	status,2,c
  2442   001B68  EFB8  F00D         	goto	i1u201_21
  2443   001B6C  EFBA  F00D         	goto	i1u201_20
  2444   001B70                     i1u201_21:
  2445   001B70  EFBE  F00D         	goto	i1l2207
  2446   001B74                     i1u201_20:
  2447   001B74                     
  2448                           ;main.c: 433:                     dis1=9;
  2449   001B74  0E00               	movlw	0
  2450   001B76  6E43               	movwf	(_dis1+1)^0,c
  2451   001B78  0E09               	movlw	9
  2452   001B7A  6E42               	movwf	_dis1^0,c
  2453   001B7C                     i1l2207:
  2454                           
  2455                           ;main.c: 436:                 dis2 = (((resultadoabs / 10) % 10)-1) ;
  2456   001B7C  0E00               	movlw	0
  2457   001B7E  6E04               	movwf	(___awdiv@divisor+1)^0,c
  2458   001B80  0E0A               	movlw	10
  2459   001B82  6E03               	movwf	___awdiv@divisor^0,c
  2460   001B84  C030  F001         	movff	_resultadoabs,___awdiv@dividend
  2461   001B88  C031  F002         	movff	_resultadoabs+1,___awdiv@dividend+1
  2462   001B8C  EC89  F011         	call	___awdiv	;wreg free
  2463   001B90  C001  F009         	movff	?___awdiv,___awmod@dividend
  2464   001B94  C002  F00A         	movff	?___awdiv+1,___awmod@dividend+1
  2465   001B98  0E00               	movlw	0
  2466   001B9A  6E0C               	movwf	(___awmod@divisor+1)^0,c
  2467   001B9C  0E0A               	movlw	10
  2468   001B9E  6E0B               	movwf	___awmod@divisor^0,c
  2469   001BA0  ECEB  F011         	call	___awmod	;wreg free
  2470   001BA4  0EFF               	movlw	255
  2471   001BA6  2409               	addwf	?___awmod^0,w,c
  2472   001BA8  6E40               	movwf	_dis2^0,c
  2473   001BAA  0EFF               	movlw	255
  2474   001BAC  200A               	addwfc	(?___awmod+1)^0,w,c
  2475   001BAE  6E41               	movwf	(_dis2+1)^0,c
  2476   001BB0                     
  2477                           ;main.c: 437:                 if(dis2+1==0){
  2478   001BB0  0E01               	movlw	1
  2479   001BB2  2440               	addwf	_dis2^0,w,c
  2480   001BB4  6E21               	movwf	??_lint^0,c
  2481   001BB6  0E00               	movlw	0
  2482   001BB8  2041               	addwfc	(_dis2+1)^0,w,c
  2483   001BBA  6E22               	movwf	(??_lint+1)^0,c
  2484   001BBC  5021               	movf	??_lint^0,w,c
  2485   001BBE  1022               	iorwf	(??_lint+1)^0,w,c
  2486   001BC0  A4D8               	btfss	status,2,c
  2487   001BC2  EFE5  F00D         	goto	i1u202_21
  2488   001BC6  EFE7  F00D         	goto	i1u202_20
  2489   001BCA                     i1u202_21:
  2490   001BCA  EFEB  F00D         	goto	i1l2213
  2491   001BCE                     i1u202_20:
  2492   001BCE                     
  2493                           ;main.c: 438:                     dis2=10;
  2494   001BCE  0E00               	movlw	0
  2495   001BD0  6E41               	movwf	(_dis2+1)^0,c
  2496   001BD2  0E0A               	movlw	10
  2497   001BD4  6E40               	movwf	_dis2^0,c
  2498   001BD6                     i1l2213:
  2499                           
  2500                           ;main.c: 441:                 dis3 =((resultadoabs/100)-1);
  2501   001BD6  C030  F001         	movff	_resultadoabs,___awdiv@dividend
  2502   001BDA  C031  F002         	movff	_resultadoabs+1,___awdiv@dividend+1
  2503   001BDE  0E00               	movlw	0
  2504   001BE0  6E04               	movwf	(___awdiv@divisor+1)^0,c
  2505   001BE2  0E64               	movlw	100
  2506   001BE4  6E03               	movwf	___awdiv@divisor^0,c
  2507   001BE6  EC89  F011         	call	___awdiv	;wreg free
  2508   001BEA  0EFF               	movlw	255
  2509   001BEC  2401               	addwf	?___awdiv^0,w,c
  2510   001BEE  6E3E               	movwf	_dis3^0,c
  2511   001BF0  0EFF               	movlw	255
  2512   001BF2  2002               	addwfc	(?___awdiv+1)^0,w,c
  2513   001BF4  6E3F               	movwf	(_dis3+1)^0,c
  2514   001BF6                     
  2515                           ;main.c: 442:                 if(dis3+1==0){
  2516   001BF6  0E01               	movlw	1
  2517   001BF8  243E               	addwf	_dis3^0,w,c
  2518   001BFA  6E21               	movwf	??_lint^0,c
  2519   001BFC  0E00               	movlw	0
  2520   001BFE  203F               	addwfc	(_dis3+1)^0,w,c
  2521   001C00  6E22               	movwf	(??_lint+1)^0,c
  2522   001C02  5021               	movf	??_lint^0,w,c
  2523   001C04  1022               	iorwf	(??_lint+1)^0,w,c
  2524   001C06  A4D8               	btfss	status,2,c
  2525   001C08  EF08  F00E         	goto	i1u203_21
  2526   001C0C  EF0A  F00E         	goto	i1u203_20
  2527   001C10                     i1u203_21:
  2528   001C10  EF0E  F00E         	goto	i1l2219
  2529   001C14                     i1u203_20:
  2530   001C14                     
  2531                           ;main.c: 443:                     dis3=10;
  2532   001C14  0E00               	movlw	0
  2533   001C16  6E3F               	movwf	(_dis3+1)^0,c
  2534   001C18  0E0A               	movlw	10
  2535   001C1A  6E3E               	movwf	_dis3^0,c
  2536   001C1C                     i1l2219:
  2537                           
  2538                           ;main.c: 446:                 if (resultado>=0){
  2539   001C1C  BE33               	btfsc	(_resultado+1)^0,7,c
  2540   001C1E  EF13  F00E         	goto	i1u204_21
  2541   001C22  EF15  F00E         	goto	i1u204_20
  2542   001C26                     i1u204_21:
  2543   001C26  EF1B  F00E         	goto	i1l2223
  2544   001C2A                     i1u204_20:
  2545   001C2A                     
  2546                           ;main.c: 447:                     dis4=10;
  2547   001C2A  0E00               	movlw	0
  2548   001C2C  6E3D               	movwf	(_dis4+1)^0,c
  2549   001C2E  0E0A               	movlw	10
  2550   001C30  6E3C               	movwf	_dis4^0,c
  2551                           
  2552                           ;main.c: 448:                 }
  2553   001C32  EF1F  F00E         	goto	i1l2225
  2554   001C36                     i1l2223:
  2555                           
  2556                           ;main.c: 450:                     dis4=13;
  2557   001C36  0E00               	movlw	0
  2558   001C38  6E3D               	movwf	(_dis4+1)^0,c
  2559   001C3A  0E0D               	movlw	13
  2560   001C3C  6E3C               	movwf	_dis4^0,c
  2561   001C3E                     i1l2225:
  2562                           
  2563                           ;main.c: 453:             _delay((unsigned long)((10)*(48000000/4000.0)));
  2564   001C3E  0E9C               	movlw	156
  2565   001C40  6E21               	movwf	??_lint^0,c
  2566   001C42  0ED7               	movlw	215
  2567   001C44                     i1u231_27:
  2568   001C44  2EE8               	decfsz	wreg,f,c
  2569   001C46  D7FE               	bra	i1u231_27
  2570   001C48  2E21               	decfsz	??_lint^0,f,c
  2571   001C4A  D7FC               	bra	i1u231_27
  2572   001C4C  0000               	nop	
  2573   001C4E                     i1l2227:
  2574                           
  2575                           ;main.c: 457:             if(REINICIO==2 & ope==8 & contador==1){
  2576   001C4E  0E02               	movlw	2
  2577   001C50  1848               	xorwf	_REINICIO^0,w,c
  2578   001C52  A4D8               	btfss	status,2,c
  2579   001C54  EF2E  F00E         	goto	i1u205_21
  2580   001C58  EF30  F00E         	goto	i1u205_20
  2581   001C5C                     i1u205_21:
  2582   001C5C  EFB3  F00E         	goto	i1l2263
  2583   001C60                     i1u205_20:
  2584   001C60  0E08               	movlw	8
  2585   001C62  1847               	xorwf	_ope^0,w,c
  2586   001C64  A4D8               	btfss	status,2,c
  2587   001C66  EF37  F00E         	goto	i1u206_21
  2588   001C6A  EF39  F00E         	goto	i1u206_20
  2589   001C6E                     i1u206_21:
  2590   001C6E  EFB3  F00E         	goto	i1l2263
  2591   001C72                     i1u206_20:
  2592   001C72  0434               	decf	_contador^0,w,c
  2593   001C74  1035               	iorwf	(_contador+1)^0,w,c
  2594   001C76  A4D8               	btfss	status,2,c
  2595   001C78  EF40  F00E         	goto	i1u207_21
  2596   001C7C  EF42  F00E         	goto	i1u207_20
  2597   001C80                     i1u207_21:
  2598   001C80  EFB3  F00E         	goto	i1l2263
  2599   001C84                     i1u207_20:
  2600   001C84                     
  2601                           ;main.c: 459:             if(dis1==9){
  2602   001C84  0E09               	movlw	9
  2603   001C86  1842               	xorwf	_dis1^0,w,c
  2604   001C88  1043               	iorwf	(_dis1+1)^0,w,c
  2605   001C8A  A4D8               	btfss	status,2,c
  2606   001C8C  EF4A  F00E         	goto	i1u208_21
  2607   001C90  EF4C  F00E         	goto	i1u208_20
  2608   001C94                     i1u208_21:
  2609   001C94  EF4E  F00E         	goto	i1l2237
  2610   001C98                     i1u208_20:
  2611   001C98                     
  2612                           ;main.c: 460:                 dis1=-1;
  2613   001C98  6842               	setf	_dis1^0,c
  2614   001C9A  6843               	setf	(_dis1+1)^0,c
  2615   001C9C                     i1l2237:
  2616                           
  2617                           ;main.c: 462:             if(dis2==9){
  2618   001C9C  0E09               	movlw	9
  2619   001C9E  1840               	xorwf	_dis2^0,w,c
  2620   001CA0  1041               	iorwf	(_dis2+1)^0,w,c
  2621   001CA2  A4D8               	btfss	status,2,c
  2622   001CA4  EF56  F00E         	goto	i1u209_21
  2623   001CA8  EF58  F00E         	goto	i1u209_20
  2624   001CAC                     i1u209_21:
  2625   001CAC  EF5A  F00E         	goto	i1l145
  2626   001CB0                     i1u209_20:
  2627   001CB0                     
  2628                           ;main.c: 463:                 dis2=-1;
  2629   001CB0  6840               	setf	_dis2^0,c
  2630   001CB2  6841               	setf	(_dis2+1)^0,c
  2631   001CB4                     i1l145:
  2632                           
  2633                           ;main.c: 466:                if((SIG % 2) == 0){
  2634   001CB4  B049               	btfsc	_SIG^0,0,c
  2635   001CB6  EF5F  F00E         	goto	i1u210_21
  2636   001CBA  EF61  F00E         	goto	i1u210_20
  2637   001CBE                     i1u210_21:
  2638   001CBE  EF77  F00E         	goto	i1l2243
  2639   001CC2                     i1u210_20:
  2640   001CC2                     
  2641                           ;main.c: 467:                 sumando1= (((dis2+1)*10)+(dis1+1));
  2642   001CC2  C040  F001         	movff	_dis2,___wmul@multiplier
  2643   001CC6  C041  F002         	movff	_dis2+1,___wmul@multiplier+1
  2644   001CCA  0E00               	movlw	0
  2645   001CCC  6E04               	movwf	(___wmul@multiplicand+1)^0,c
  2646   001CCE  0E0A               	movlw	10
  2647   001CD0  6E03               	movwf	___wmul@multiplicand^0,c
  2648   001CD2  EC9C  F012         	call	___wmul	;wreg free
  2649   001CD6  5042               	movf	_dis1^0,w,c
  2650   001CD8  2601               	addwf	?___wmul^0,f,c
  2651   001CDA  5043               	movf	(_dis1+1)^0,w,c
  2652   001CDC  2202               	addwfc	(?___wmul+1)^0,f,c
  2653   001CDE  0E0B               	movlw	11
  2654   001CE0  2401               	addwf	?___wmul^0,w,c
  2655   001CE2  6E38               	movwf	_sumando1^0,c
  2656   001CE4  0E00               	movlw	0
  2657   001CE6  2002               	addwfc	(?___wmul+1)^0,w,c
  2658   001CE8  6E39               	movwf	(_sumando1+1)^0,c
  2659                           
  2660                           ;main.c: 468:                 }
  2661   001CEA  EF91  F00E         	goto	i1l2245
  2662   001CEE                     i1l2243:
  2663                           
  2664                           ;main.c: 470:                  sumando1= -(((dis2+1)*10)+(dis1+1));
  2665   001CEE  C040  F001         	movff	_dis2,___wmul@multiplier
  2666   001CF2  C041  F002         	movff	_dis2+1,___wmul@multiplier+1
  2667   001CF6  0E00               	movlw	0
  2668   001CF8  6E04               	movwf	(___wmul@multiplicand+1)^0,c
  2669   001CFA  0E0A               	movlw	10
  2670   001CFC  6E03               	movwf	___wmul@multiplicand^0,c
  2671   001CFE  EC9C  F012         	call	___wmul	;wreg free
  2672   001D02  5042               	movf	_dis1^0,w,c
  2673   001D04  2601               	addwf	?___wmul^0,f,c
  2674   001D06  5043               	movf	(_dis1+1)^0,w,c
  2675   001D08  2202               	addwfc	(?___wmul+1)^0,f,c
  2676   001D0A  0E0B               	movlw	11
  2677   001D0C  2601               	addwf	?___wmul^0,f,c
  2678   001D0E  0E00               	movlw	0
  2679   001D10  2202               	addwfc	(?___wmul+1)^0,f,c
  2680   001D12  1E01               	comf	?___wmul^0,f,c
  2681   001D14  1E02               	comf	(?___wmul+1)^0,f,c
  2682   001D16  4A01               	infsnz	?___wmul^0,f,c
  2683   001D18  2A02               	incf	(?___wmul+1)^0,f,c
  2684   001D1A  C001  F038         	movff	?___wmul,_sumando1
  2685   001D1E  C002  F039         	movff	?___wmul+1,_sumando1+1
  2686   001D22                     i1l2245:
  2687                           
  2688                           ;main.c: 473:                REINICIO=0;
  2689   001D22  0E00               	movlw	0
  2690   001D24  6E48               	movwf	_REINICIO^0,c
  2691   001D26                     
  2692                           ;main.c: 474:                 SIG=0;
  2693   001D26  0E00               	movlw	0
  2694   001D28  6E49               	movwf	_SIG^0,c
  2695   001D2A                     
  2696                           ;main.c: 475:                 bandera1=0;
  2697   001D2A  0E00               	movlw	0
  2698   001D2C  6E45               	movwf	(_bandera1+1)^0,c
  2699   001D2E  0E00               	movlw	0
  2700   001D30  6E44               	movwf	_bandera1^0,c
  2701   001D32                     
  2702                           ;main.c: 476:                 cambio1=0;
  2703   001D32  0E00               	movlw	0
  2704   001D34  6E4A               	movwf	_cambio1^0,c
  2705   001D36                     
  2706                           ;main.c: 477:                 dis1=10;
  2707   001D36  0E00               	movlw	0
  2708   001D38  6E43               	movwf	(_dis1+1)^0,c
  2709   001D3A  0E0A               	movlw	10
  2710   001D3C  6E42               	movwf	_dis1^0,c
  2711   001D3E                     
  2712                           ;main.c: 478:                 dis2=10;
  2713   001D3E  0E00               	movlw	0
  2714   001D40  6E41               	movwf	(_dis2+1)^0,c
  2715   001D42  0E0A               	movlw	10
  2716   001D44  6E40               	movwf	_dis2^0,c
  2717   001D46                     
  2718                           ;main.c: 479:                 dis3=10;
  2719   001D46  0E00               	movlw	0
  2720   001D48  6E3F               	movwf	(_dis3+1)^0,c
  2721   001D4A  0E0A               	movlw	10
  2722   001D4C  6E3E               	movwf	_dis3^0,c
  2723   001D4E                     
  2724                           ;main.c: 480:                 dis4=10;
  2725   001D4E  0E00               	movlw	0
  2726   001D50  6E3D               	movwf	(_dis4+1)^0,c
  2727   001D52  0E0A               	movlw	10
  2728   001D54  6E3C               	movwf	_dis4^0,c
  2729   001D56                     
  2730                           ;main.c: 481:             _delay((unsigned long)((10)*(48000000/4000.0)));
  2731   001D56  0E9C               	movlw	156
  2732   001D58  6E21               	movwf	??_lint^0,c
  2733   001D5A  0ED7               	movlw	215
  2734   001D5C                     i1u232_27:
  2735   001D5C  2EE8               	decfsz	wreg,f,c
  2736   001D5E  D7FE               	bra	i1u232_27
  2737   001D60  2E21               	decfsz	??_lint^0,f,c
  2738   001D62  D7FC               	bra	i1u232_27
  2739   001D64  0000               	nop	
  2740   001D66                     i1l2263:
  2741                           
  2742                           ;main.c: 487:             if(ope==8 & contador==2){
  2743   001D66  0E08               	movlw	8
  2744   001D68  1847               	xorwf	_ope^0,w,c
  2745   001D6A  A4D8               	btfss	status,2,c
  2746   001D6C  EFBA  F00E         	goto	i1u211_21
  2747   001D70  EFBC  F00E         	goto	i1u211_20
  2748   001D74                     i1u211_21:
  2749   001D74  EF08  F010         	goto	i1l2323
  2750   001D78                     i1u211_20:
  2751   001D78  0E02               	movlw	2
  2752   001D7A  1834               	xorwf	_contador^0,w,c
  2753   001D7C  1035               	iorwf	(_contador+1)^0,w,c
  2754   001D7E  A4D8               	btfss	status,2,c
  2755   001D80  EFC4  F00E         	goto	i1u212_21
  2756   001D84  EFC6  F00E         	goto	i1u212_20
  2757   001D88                     i1u212_21:
  2758   001D88  EF08  F010         	goto	i1l2323
  2759   001D8C                     i1u212_20:
  2760   001D8C                     
  2761                           ;main.c: 489:             if(dis1==9){
  2762   001D8C  0E09               	movlw	9
  2763   001D8E  1842               	xorwf	_dis1^0,w,c
  2764   001D90  1043               	iorwf	(_dis1+1)^0,w,c
  2765   001D92  A4D8               	btfss	status,2,c
  2766   001D94  EFCE  F00E         	goto	i1u213_21
  2767   001D98  EFD0  F00E         	goto	i1u213_20
  2768   001D9C                     i1u213_21:
  2769   001D9C  EFD2  F00E         	goto	i1l2271
  2770   001DA0                     i1u213_20:
  2771   001DA0                     
  2772                           ;main.c: 490:                 dis1=-1;
  2773   001DA0  6842               	setf	_dis1^0,c
  2774   001DA2  6843               	setf	(_dis1+1)^0,c
  2775   001DA4                     i1l2271:
  2776                           
  2777                           ;main.c: 492:             if(dis2==9){
  2778   001DA4  0E09               	movlw	9
  2779   001DA6  1840               	xorwf	_dis2^0,w,c
  2780   001DA8  1041               	iorwf	(_dis2+1)^0,w,c
  2781   001DAA  A4D8               	btfss	status,2,c
  2782   001DAC  EFDA  F00E         	goto	i1u214_21
  2783   001DB0  EFDC  F00E         	goto	i1u214_20
  2784   001DB4                     i1u214_21:
  2785   001DB4  EFDE  F00E         	goto	i1l150
  2786   001DB8                     i1u214_20:
  2787   001DB8                     
  2788                           ;main.c: 493:                 dis2=-1;
  2789   001DB8  6840               	setf	_dis2^0,c
  2790   001DBA  6841               	setf	(_dis2+1)^0,c
  2791   001DBC                     i1l150:
  2792                           
  2793                           ;main.c: 496:                if((SIG % 2) == 0){
  2794   001DBC  B049               	btfsc	_SIG^0,0,c
  2795   001DBE  EFE3  F00E         	goto	i1u215_21
  2796   001DC2  EFE5  F00E         	goto	i1u215_20
  2797   001DC6                     i1u215_21:
  2798   001DC6  EFFB  F00E         	goto	i1l2277
  2799   001DCA                     i1u215_20:
  2800   001DCA                     
  2801                           ;main.c: 497:                 sumando2 = (((dis2+1)*10)+(dis1+1));
  2802   001DCA  C040  F001         	movff	_dis2,___wmul@multiplier
  2803   001DCE  C041  F002         	movff	_dis2+1,___wmul@multiplier+1
  2804   001DD2  0E00               	movlw	0
  2805   001DD4  6E04               	movwf	(___wmul@multiplicand+1)^0,c
  2806   001DD6  0E0A               	movlw	10
  2807   001DD8  6E03               	movwf	___wmul@multiplicand^0,c
  2808   001DDA  EC9C  F012         	call	___wmul	;wreg free
  2809   001DDE  5042               	movf	_dis1^0,w,c
  2810   001DE0  2601               	addwf	?___wmul^0,f,c
  2811   001DE2  5043               	movf	(_dis1+1)^0,w,c
  2812   001DE4  2202               	addwfc	(?___wmul+1)^0,f,c
  2813   001DE6  0E0B               	movlw	11
  2814   001DE8  2401               	addwf	?___wmul^0,w,c
  2815   001DEA  6E36               	movwf	_sumando2^0,c
  2816   001DEC  0E00               	movlw	0
  2817   001DEE  2002               	addwfc	(?___wmul+1)^0,w,c
  2818   001DF0  6E37               	movwf	(_sumando2+1)^0,c
  2819                           
  2820                           ;main.c: 498:                 }
  2821   001DF2  EF15  F00F         	goto	i1l2279
  2822   001DF6                     i1l2277:
  2823                           
  2824                           ;main.c: 500:                  sumando2 = -((((dis2+1)*10)+(dis1+1)));
  2825   001DF6  C040  F001         	movff	_dis2,___wmul@multiplier
  2826   001DFA  C041  F002         	movff	_dis2+1,___wmul@multiplier+1
  2827   001DFE  0E00               	movlw	0
  2828   001E00  6E04               	movwf	(___wmul@multiplicand+1)^0,c
  2829   001E02  0E0A               	movlw	10
  2830   001E04  6E03               	movwf	___wmul@multiplicand^0,c
  2831   001E06  EC9C  F012         	call	___wmul	;wreg free
  2832   001E0A  5042               	movf	_dis1^0,w,c
  2833   001E0C  2601               	addwf	?___wmul^0,f,c
  2834   001E0E  5043               	movf	(_dis1+1)^0,w,c
  2835   001E10  2202               	addwfc	(?___wmul+1)^0,f,c
  2836   001E12  0E0B               	movlw	11
  2837   001E14  2601               	addwf	?___wmul^0,f,c
  2838   001E16  0E00               	movlw	0
  2839   001E18  2202               	addwfc	(?___wmul+1)^0,f,c
  2840   001E1A  1E01               	comf	?___wmul^0,f,c
  2841   001E1C  1E02               	comf	(?___wmul+1)^0,f,c
  2842   001E1E  4A01               	infsnz	?___wmul^0,f,c
  2843   001E20  2A02               	incf	(?___wmul+1)^0,f,c
  2844   001E22  C001  F036         	movff	?___wmul,_sumando2
  2845   001E26  C002  F037         	movff	?___wmul+1,_sumando2+1
  2846   001E2A                     i1l2279:
  2847                           
  2848                           ;main.c: 503:                REINICIO=0;
  2849   001E2A  0E00               	movlw	0
  2850   001E2C  6E48               	movwf	_REINICIO^0,c
  2851   001E2E                     
  2852                           ;main.c: 504:                 SIG=0;
  2853   001E2E  0E00               	movlw	0
  2854   001E30  6E49               	movwf	_SIG^0,c
  2855   001E32                     
  2856                           ;main.c: 505:                 bandera1=1;
  2857   001E32  0E00               	movlw	0
  2858   001E34  6E45               	movwf	(_bandera1+1)^0,c
  2859   001E36  0E01               	movlw	1
  2860   001E38  6E44               	movwf	_bandera1^0,c
  2861   001E3A                     
  2862                           ;main.c: 506:                 cambio1=0;
  2863   001E3A  0E00               	movlw	0
  2864   001E3C  6E4A               	movwf	_cambio1^0,c
  2865   001E3E                     
  2866                           ;main.c: 507:                 contador++;
  2867   001E3E  4A34               	infsnz	_contador^0,f,c
  2868   001E40  2A35               	incf	(_contador+1)^0,f,c
  2869   001E42                     
  2870                           ;main.c: 508:                 resultado= sumando1 *sumando2;
  2871   001E42  C038  F001         	movff	_sumando1,___wmul@multiplier
  2872   001E46  C039  F002         	movff	_sumando1+1,___wmul@multiplier+1
  2873   001E4A  C036  F003         	movff	_sumando2,___wmul@multiplicand
  2874   001E4E  C037  F004         	movff	_sumando2+1,___wmul@multiplicand+1
  2875   001E52  EC9C  F012         	call	___wmul	;wreg free
  2876   001E56  C001  F032         	movff	?___wmul,_resultado
  2877   001E5A  C002  F033         	movff	?___wmul+1,_resultado+1
  2878   001E5E                     
  2879                           ;main.c: 509:                 resultadoabs= fabsf(resultado);
  2880   001E5E  C032  F001         	movff	_resultado,___xxtofl@val
  2881   001E62  C033  F002         	movff	_resultado+1,___xxtofl@val+1
  2882   001E66  0E00               	movlw	0
  2883   001E68  BE02               	btfsc	(___xxtofl@val+1)^0,7,c
  2884   001E6A  0EFF               	movlw	-1
  2885   001E6C  6E03               	movwf	(___xxtofl@val+2)^0,c
  2886   001E6E  6E04               	movwf	(___xxtofl@val+3)^0,c
  2887   001E70  0E01               	movlw	1
  2888   001E72  EC2C  F010         	call	___xxtofl
  2889   001E76  C001  F00F         	movff	?___xxtofl,fabsf@x
  2890   001E7A  C002  F010         	movff	?___xxtofl+1,fabsf@x+1
  2891   001E7E  C003  F011         	movff	?___xxtofl+2,fabsf@x+2
  2892   001E82  C004  F012         	movff	?___xxtofl+3,fabsf@x+3
  2893   001E86  EC82  F012         	call	_fabsf	;wreg free
  2894   001E8A  C00F  F017         	movff	?_fabsf,___fltol@f1
  2895   001E8E  C010  F018         	movff	?_fabsf+1,___fltol@f1+1
  2896   001E92  C011  F019         	movff	?_fabsf+2,___fltol@f1+2
  2897   001E96  C012  F01A         	movff	?_fabsf+3,___fltol@f1+3
  2898   001E9A  EC06  F011         	call	___fltol	;wreg free
  2899   001E9E  C017  F030         	movff	?___fltol,_resultadoabs
  2900   001EA2  C018  F031         	movff	?___fltol+1,_resultadoabs+1
  2901   001EA6                     
  2902                           ;main.c: 511:                 dis1 = ((resultadoabs % 10)-1);
  2903   001EA6  C030  F009         	movff	_resultadoabs,___awmod@dividend
  2904   001EAA  C031  F00A         	movff	_resultadoabs+1,___awmod@dividend+1
  2905   001EAE  0E00               	movlw	0
  2906   001EB0  6E0C               	movwf	(___awmod@divisor+1)^0,c
  2907   001EB2  0E0A               	movlw	10
  2908   001EB4  6E0B               	movwf	___awmod@divisor^0,c
  2909   001EB6  ECEB  F011         	call	___awmod	;wreg free
  2910   001EBA  0EFF               	movlw	255
  2911   001EBC  2409               	addwf	?___awmod^0,w,c
  2912   001EBE  6E42               	movwf	_dis1^0,c
  2913   001EC0  0EFF               	movlw	255
  2914   001EC2  200A               	addwfc	(?___awmod+1)^0,w,c
  2915   001EC4  6E43               	movwf	(_dis1+1)^0,c
  2916   001EC6                     
  2917                           ;main.c: 512:                 if(dis1+1==0){
  2918   001EC6  0E01               	movlw	1
  2919   001EC8  2442               	addwf	_dis1^0,w,c
  2920   001ECA  6E21               	movwf	??_lint^0,c
  2921   001ECC  0E00               	movlw	0
  2922   001ECE  2043               	addwfc	(_dis1+1)^0,w,c
  2923   001ED0  6E22               	movwf	(??_lint+1)^0,c
  2924   001ED2  5021               	movf	??_lint^0,w,c
  2925   001ED4  1022               	iorwf	(??_lint+1)^0,w,c
  2926   001ED6  A4D8               	btfss	status,2,c
  2927   001ED8  EF70  F00F         	goto	i1u216_21
  2928   001EDC  EF72  F00F         	goto	i1u216_20
  2929   001EE0                     i1u216_21:
  2930   001EE0  EF76  F00F         	goto	i1l2299
  2931   001EE4                     i1u216_20:
  2932   001EE4                     
  2933                           ;main.c: 513:                     dis1=9;
  2934   001EE4  0E00               	movlw	0
  2935   001EE6  6E43               	movwf	(_dis1+1)^0,c
  2936   001EE8  0E09               	movlw	9
  2937   001EEA  6E42               	movwf	_dis1^0,c
  2938   001EEC                     i1l2299:
  2939                           
  2940                           ;main.c: 516:                 dis2 = (((resultadoabs % 100) / 10)-1) ;
  2941   001EEC  0E00               	movlw	0
  2942   001EEE  6E0C               	movwf	(___awmod@divisor+1)^0,c
  2943   001EF0  0E64               	movlw	100
  2944   001EF2  6E0B               	movwf	___awmod@divisor^0,c
  2945   001EF4  C030  F009         	movff	_resultadoabs,___awmod@dividend
  2946   001EF8  C031  F00A         	movff	_resultadoabs+1,___awmod@dividend+1
  2947   001EFC  ECEB  F011         	call	___awmod	;wreg free
  2948   001F00  C009  F001         	movff	?___awmod,___awdiv@dividend
  2949   001F04  C00A  F002         	movff	?___awmod+1,___awdiv@dividend+1
  2950   001F08  0E00               	movlw	0
  2951   001F0A  6E04               	movwf	(___awdiv@divisor+1)^0,c
  2952   001F0C  0E0A               	movlw	10
  2953   001F0E  6E03               	movwf	___awdiv@divisor^0,c
  2954   001F10  EC89  F011         	call	___awdiv	;wreg free
  2955   001F14  0EFF               	movlw	255
  2956   001F16  2401               	addwf	?___awdiv^0,w,c
  2957   001F18  6E40               	movwf	_dis2^0,c
  2958   001F1A  0EFF               	movlw	255
  2959   001F1C  2002               	addwfc	(?___awdiv+1)^0,w,c
  2960   001F1E  6E41               	movwf	(_dis2+1)^0,c
  2961   001F20                     
  2962                           ;main.c: 517:                 if(dis2+1==0){
  2963   001F20  0E01               	movlw	1
  2964   001F22  2440               	addwf	_dis2^0,w,c
  2965   001F24  6E21               	movwf	??_lint^0,c
  2966   001F26  0E00               	movlw	0
  2967   001F28  2041               	addwfc	(_dis2+1)^0,w,c
  2968   001F2A  6E22               	movwf	(??_lint+1)^0,c
  2969   001F2C  5021               	movf	??_lint^0,w,c
  2970   001F2E  1022               	iorwf	(??_lint+1)^0,w,c
  2971   001F30  A4D8               	btfss	status,2,c
  2972   001F32  EF9D  F00F         	goto	i1u217_21
  2973   001F36  EF9F  F00F         	goto	i1u217_20
  2974   001F3A                     i1u217_21:
  2975   001F3A  EFA3  F00F         	goto	i1l2305
  2976   001F3E                     i1u217_20:
  2977   001F3E                     
  2978                           ;main.c: 518:                     dis2=9;
  2979   001F3E  0E00               	movlw	0
  2980   001F40  6E41               	movwf	(_dis2+1)^0,c
  2981   001F42  0E09               	movlw	9
  2982   001F44  6E40               	movwf	_dis2^0,c
  2983   001F46                     i1l2305:
  2984                           
  2985                           ;main.c: 521:                 dis3 =(((resultadoabs % 1000 )/ 100) -1);
  2986   001F46  0E03               	movlw	3
  2987   001F48  6E0C               	movwf	(___awmod@divisor+1)^0,c
  2988   001F4A  0EE8               	movlw	232
  2989   001F4C  6E0B               	movwf	___awmod@divisor^0,c
  2990   001F4E  C030  F009         	movff	_resultadoabs,___awmod@dividend
  2991   001F52  C031  F00A         	movff	_resultadoabs+1,___awmod@dividend+1
  2992   001F56  ECEB  F011         	call	___awmod	;wreg free
  2993   001F5A  C009  F001         	movff	?___awmod,___awdiv@dividend
  2994   001F5E  C00A  F002         	movff	?___awmod+1,___awdiv@dividend+1
  2995   001F62  0E00               	movlw	0
  2996   001F64  6E04               	movwf	(___awdiv@divisor+1)^0,c
  2997   001F66  0E64               	movlw	100
  2998   001F68  6E03               	movwf	___awdiv@divisor^0,c
  2999   001F6A  EC89  F011         	call	___awdiv	;wreg free
  3000   001F6E  0EFF               	movlw	255
  3001   001F70  2401               	addwf	?___awdiv^0,w,c
  3002   001F72  6E3E               	movwf	_dis3^0,c
  3003   001F74  0EFF               	movlw	255
  3004   001F76  2002               	addwfc	(?___awdiv+1)^0,w,c
  3005   001F78  6E3F               	movwf	(_dis3+1)^0,c
  3006   001F7A                     
  3007                           ;main.c: 522:                 if(dis3+1==0){
  3008   001F7A  0E01               	movlw	1
  3009   001F7C  243E               	addwf	_dis3^0,w,c
  3010   001F7E  6E21               	movwf	??_lint^0,c
  3011   001F80  0E00               	movlw	0
  3012   001F82  203F               	addwfc	(_dis3+1)^0,w,c
  3013   001F84  6E22               	movwf	(??_lint+1)^0,c
  3014   001F86  5021               	movf	??_lint^0,w,c
  3015   001F88  1022               	iorwf	(??_lint+1)^0,w,c
  3016   001F8A  A4D8               	btfss	status,2,c
  3017   001F8C  EFCA  F00F         	goto	i1u218_21
  3018   001F90  EFCC  F00F         	goto	i1u218_20
  3019   001F94                     i1u218_21:
  3020   001F94  EFD0  F00F         	goto	i1l2311
  3021   001F98                     i1u218_20:
  3022   001F98                     
  3023                           ;main.c: 523:                     dis3=9;
  3024   001F98  0E00               	movlw	0
  3025   001F9A  6E3F               	movwf	(_dis3+1)^0,c
  3026   001F9C  0E09               	movlw	9
  3027   001F9E  6E3E               	movwf	_dis3^0,c
  3028   001FA0                     i1l2311:
  3029                           
  3030                           ;main.c: 526:                 dis4 =((resultadoabs / 1000) -1);
  3031   001FA0  C030  F001         	movff	_resultadoabs,___awdiv@dividend
  3032   001FA4  C031  F002         	movff	_resultadoabs+1,___awdiv@dividend+1
  3033   001FA8  0E03               	movlw	3
  3034   001FAA  6E04               	movwf	(___awdiv@divisor+1)^0,c
  3035   001FAC  0EE8               	movlw	232
  3036   001FAE  6E03               	movwf	___awdiv@divisor^0,c
  3037   001FB0  EC89  F011         	call	___awdiv	;wreg free
  3038   001FB4  0EFF               	movlw	255
  3039   001FB6  2401               	addwf	?___awdiv^0,w,c
  3040   001FB8  6E3C               	movwf	_dis4^0,c
  3041   001FBA  0EFF               	movlw	255
  3042   001FBC  2002               	addwfc	(?___awdiv+1)^0,w,c
  3043   001FBE  6E3D               	movwf	(_dis4+1)^0,c
  3044   001FC0                     
  3045                           ;main.c: 527:                 if(dis4+1==0){
  3046   001FC0  0E01               	movlw	1
  3047   001FC2  243C               	addwf	_dis4^0,w,c
  3048   001FC4  6E21               	movwf	??_lint^0,c
  3049   001FC6  0E00               	movlw	0
  3050   001FC8  203D               	addwfc	(_dis4+1)^0,w,c
  3051   001FCA  6E22               	movwf	(??_lint+1)^0,c
  3052   001FCC  5021               	movf	??_lint^0,w,c
  3053   001FCE  1022               	iorwf	(??_lint+1)^0,w,c
  3054   001FD0  A4D8               	btfss	status,2,c
  3055   001FD2  EFED  F00F         	goto	i1u219_21
  3056   001FD6  EFEF  F00F         	goto	i1u219_20
  3057   001FDA                     i1u219_21:
  3058   001FDA  EFF3  F00F         	goto	i1l2317
  3059   001FDE                     i1u219_20:
  3060   001FDE                     
  3061                           ;main.c: 528:                     dis4=9;
  3062   001FDE  0E00               	movlw	0
  3063   001FE0  6E3D               	movwf	(_dis4+1)^0,c
  3064   001FE2  0E09               	movlw	9
  3065   001FE4  6E3C               	movwf	_dis4^0,c
  3066   001FE6                     i1l2317:
  3067                           
  3068                           ;main.c: 531:                 if(resultado<0){
  3069   001FE6  BE33               	btfsc	(_resultado+1)^0,7,c
  3070   001FE8  EFFA  F00F         	goto	i1u220_20
  3071   001FEC  EFF8  F00F         	goto	i1u220_21
  3072   001FF0                     i1u220_21:
  3073   001FF0  EF00  F010         	goto	i1l2321
  3074   001FF4                     i1u220_20:
  3075   001FF4                     
  3076                           ;main.c: 532:                     dis4=dis4+14;
  3077   001FF4  0E0E               	movlw	14
  3078   001FF6  243C               	addwf	_dis4^0,w,c
  3079   001FF8  6E3C               	movwf	_dis4^0,c
  3080   001FFA  0E00               	movlw	0
  3081   001FFC  203D               	addwfc	(_dis4+1)^0,w,c
  3082   001FFE  6E3D               	movwf	(_dis4+1)^0,c
  3083   002000                     i1l2321:
  3084                           
  3085                           ;main.c: 538:             _delay((unsigned long)((10)*(48000000/4000.0)));
  3086   002000  0E9C               	movlw	156
  3087   002002  6E21               	movwf	??_lint^0,c
  3088   002004  0ED7               	movlw	215
  3089   002006                     i1u233_27:
  3090   002006  2EE8               	decfsz	wreg,f,c
  3091   002008  D7FE               	bra	i1u233_27
  3092   00200A  2E21               	decfsz	??_lint^0,f,c
  3093   00200C  D7FC               	bra	i1u233_27
  3094   00200E  0000               	nop	
  3095   002010                     i1l2323:
  3096                           
  3097                           ;main.c: 545:         INTCONbits.TMR0IF=0;
  3098   002010  94F2               	bcf	242,2,c	;volatile
  3099   002012                     i1l158:
  3100   002012  C02B  FFF5         	movff	??_lint+10,tablat
  3101   002016  C02A  FFF8         	movff	??_lint+9,tblptru
  3102   00201A  C029  FFF7         	movff	??_lint+8,tblptrh
  3103   00201E  C028  FFF6         	movff	??_lint+7,tblptrl
  3104   002022  C027  FFF4         	movff	??_lint+6,prodh
  3105   002026  C026  FFF3         	movff	??_lint+5,prodl
  3106   00202A  C025  FFE0         	movff	??_lint+4,bsr
  3107   00202E  C024  FFE8         	movff	??_lint+3,wreg
  3108   002032  C023  FFD8         	movff	??_lint+2,status
  3109   002036  904B               	bcf	int$flags,0,c	;clear compiler interrupt flag (level 1)
  3110   002038  0010               	retfie	
  3111   00203A                     __end_of_lint:
  3112                           	callstack 0
  3113                           
  3114 ;; *************** function _fabsf *****************
  3115 ;; Defined at:
  3116 ;;		line 4 in file "C:\Program Files\Microchip\xc8\v2.46\pic\sources\c99\common\fabsf.c"
  3117 ;; Parameters:    Size  Location     Type
  3118 ;;  x               4   14[COMRAM] float 
  3119 ;; Auto vars:     Size  Location     Type
  3120 ;;  u               4   18[COMRAM] struct .
  3121 ;; Return value:  Size  Location     Type
  3122 ;;                  4   14[COMRAM] float 
  3123 ;; Registers used:
  3124 ;;		status,2, status,0
  3125 ;; Tracked objects:
  3126 ;;		On entry : 0/0
  3127 ;;		On exit  : 0/0
  3128 ;;		Unchanged: 0/0
  3129 ;; Data sizes:     COMRAM   BANK0   BANK1   BANK2   BANK3   BANK4   BANK5   BANK6   BANK7
  3130 ;;      Params:         4       0       0       0       0       0       0       0       0
  3131 ;;      Locals:         4       0       0       0       0       0       0       0       0
  3132 ;;      Temps:          0       0       0       0       0       0       0       0       0
  3133 ;;      Totals:         8       0       0       0       0       0       0       0       0
  3134 ;;Total ram usage:        8 bytes
  3135 ;; Hardware stack levels used: 1
  3136 ;; Hardware stack levels required when called: 1
  3137 ;; This function calls:
  3138 ;;		Nothing
  3139 ;; This function is called by:
  3140 ;;		_lint
  3141 ;; This function uses a non-reentrant model
  3142 ;;
  3143                           
  3144                           	psect	text3
  3145   002504                     __ptext3:
  3146                           	callstack 0
  3147   002504                     _fabsf:
  3148                           	callstack 27
  3149   002504  C02C  F013         	movff	fabsf@F465,fabsf@u
  3150   002508  C02D  F014         	movff	fabsf@F465+1,fabsf@u+1
  3151   00250C  C02E  F015         	movff	fabsf@F465+2,fabsf@u+2
  3152   002510  C02F  F016         	movff	fabsf@F465+3,fabsf@u+3
  3153   002514  C00F  F013         	movff	fabsf@x,fabsf@u
  3154   002518  C010  F014         	movff	fabsf@x+1,fabsf@u+1
  3155   00251C  C011  F015         	movff	fabsf@x+2,fabsf@u+2
  3156   002520  C012  F016         	movff	fabsf@x+3,fabsf@u+3
  3157   002524  9E16               	bcf	(fabsf@u+3)^0,7,c
  3158   002526  C013  F00F         	movff	fabsf@u,?_fabsf
  3159   00252A  C014  F010         	movff	fabsf@u+1,?_fabsf+1
  3160   00252E  C015  F011         	movff	fabsf@u+2,?_fabsf+2
  3161   002532  C016  F012         	movff	fabsf@u+3,?_fabsf+3
  3162   002536  0012               	return		;funcret
  3163   002538                     __end_of_fabsf:
  3164                           	callstack 0
  3165                           
  3166 ;; *************** function ___xxtofl *****************
  3167 ;; Defined at:
  3168 ;;		line 10 in file "C:\Program Files\Microchip\xc8\v2.46\pic\sources\c99\common\xxtofl.c"
  3169 ;; Parameters:    Size  Location     Type
  3170 ;;  sign            1    wreg     unsigned char 
  3171 ;;  val             4    0[COMRAM] long 
  3172 ;; Auto vars:     Size  Location     Type
  3173 ;;  sign            1    8[COMRAM] unsigned char 
  3174 ;;  arg             4   10[COMRAM] unsigned long 
  3175 ;;  exp             1    9[COMRAM] unsigned char 
  3176 ;; Return value:  Size  Location     Type
  3177 ;;                  4    0[COMRAM] unsigned char 
  3178 ;; Registers used:
  3179 ;;		wreg, status,2, status,0
  3180 ;; Tracked objects:
  3181 ;;		On entry : 0/0
  3182 ;;		On exit  : 0/0
  3183 ;;		Unchanged: 0/0
  3184 ;; Data sizes:     COMRAM   BANK0   BANK1   BANK2   BANK3   BANK4   BANK5   BANK6   BANK7
  3185 ;;      Params:         4       0       0       0       0       0       0       0       0
  3186 ;;      Locals:         6       0       0       0       0       0       0       0       0
  3187 ;;      Temps:          4       0       0       0       0       0       0       0       0
  3188 ;;      Totals:        14       0       0       0       0       0       0       0       0
  3189 ;;Total ram usage:       14 bytes
  3190 ;; Hardware stack levels used: 1
  3191 ;; Hardware stack levels required when called: 1
  3192 ;; This function calls:
  3193 ;;		Nothing
  3194 ;; This function is called by:
  3195 ;;		_lint
  3196 ;; This function uses a non-reentrant model
  3197 ;;
  3198                           
  3199                           	psect	text4
  3200   002058                     __ptext4:
  3201                           	callstack 0
  3202   002058                     ___xxtofl:
  3203                           	callstack 27
  3204                           
  3205                           ;incstack = 0
  3206                           ;___xxtofl@sign stored from wreg
  3207   002058  6E09               	movwf	___xxtofl@sign^0,c
  3208   00205A  5009               	movf	___xxtofl@sign^0,w,c
  3209   00205C  B4D8               	btfsc	status,2,c
  3210   00205E  EF33  F010         	goto	i1u131_21
  3211   002062  EF35  F010         	goto	i1u131_20
  3212   002066                     i1u131_21:
  3213   002066  EF57  F010         	goto	i1l890
  3214   00206A                     i1u131_20:
  3215   00206A  BE04               	btfsc	(___xxtofl@val+3)^0,7,c
  3216   00206C  EF3C  F010         	goto	i1u132_20
  3217   002070  EF3A  F010         	goto	i1u132_21
  3218   002074                     i1u132_21:
  3219   002074  EF57  F010         	goto	i1l890
  3220   002078                     i1u132_20:
  3221   002078  C001  F005         	movff	___xxtofl@val,??___xxtofl
  3222   00207C  C002  F006         	movff	___xxtofl@val+1,??___xxtofl+1
  3223   002080  C003  F007         	movff	___xxtofl@val+2,??___xxtofl+2
  3224   002084  C004  F008         	movff	___xxtofl@val+3,??___xxtofl+3
  3225   002088  1E05               	comf	??___xxtofl^0,f,c
  3226   00208A  1E06               	comf	(??___xxtofl+1)^0,f,c
  3227   00208C  1E07               	comf	(??___xxtofl+2)^0,f,c
  3228   00208E  1E08               	comf	(??___xxtofl+3)^0,f,c
  3229   002090  2A05               	incf	??___xxtofl^0,f,c
  3230   002092  0E00               	movlw	0
  3231   002094  2206               	addwfc	(??___xxtofl+1)^0,f,c
  3232   002096  2207               	addwfc	(??___xxtofl+2)^0,f,c
  3233   002098  2208               	addwfc	(??___xxtofl+3)^0,f,c
  3234   00209A  C005  F00B         	movff	??___xxtofl,___xxtofl@arg
  3235   00209E  C006  F00C         	movff	??___xxtofl+1,___xxtofl@arg+1
  3236   0020A2  C007  F00D         	movff	??___xxtofl+2,___xxtofl@arg+2
  3237   0020A6  C008  F00E         	movff	??___xxtofl+3,___xxtofl@arg+3
  3238   0020AA  EF5F  F010         	goto	i1l1795
  3239   0020AE                     i1l890:
  3240   0020AE  C001  F00B         	movff	___xxtofl@val,___xxtofl@arg
  3241   0020B2  C002  F00C         	movff	___xxtofl@val+1,___xxtofl@arg+1
  3242   0020B6  C003  F00D         	movff	___xxtofl@val+2,___xxtofl@arg+2
  3243   0020BA  C004  F00E         	movff	___xxtofl@val+3,___xxtofl@arg+3
  3244   0020BE                     i1l1795:
  3245   0020BE  5001               	movf	___xxtofl@val^0,w,c
  3246   0020C0  1002               	iorwf	(___xxtofl@val+1)^0,w,c
  3247   0020C2  1003               	iorwf	(___xxtofl@val+2)^0,w,c
  3248   0020C4  1004               	iorwf	(___xxtofl@val+3)^0,w,c
  3249   0020C6  A4D8               	btfss	status,2,c
  3250   0020C8  EF68  F010         	goto	i1u133_21
  3251   0020CC  EF6A  F010         	goto	i1u133_20
  3252   0020D0                     i1u133_21:
  3253   0020D0  EF74  F010         	goto	i1l1801
  3254   0020D4                     i1u133_20:
  3255   0020D4  0E00               	movlw	0
  3256   0020D6  6E01               	movwf	?___xxtofl^0,c
  3257   0020D8  0E00               	movlw	0
  3258   0020DA  6E02               	movwf	(?___xxtofl+1)^0,c
  3259   0020DC  0E00               	movlw	0
  3260   0020DE  6E03               	movwf	(?___xxtofl+2)^0,c
  3261   0020E0  0E00               	movlw	0
  3262   0020E2  6E04               	movwf	(?___xxtofl+3)^0,c
  3263   0020E4  EF05  F011         	goto	i1l893
  3264   0020E8                     i1l1801:
  3265   0020E8  0E96               	movlw	150
  3266   0020EA  6E0A               	movwf	___xxtofl@exp^0,c
  3267   0020EC  EF7E  F010         	goto	i1l1805
  3268   0020F0                     i1l1803:
  3269   0020F0  2A0A               	incf	___xxtofl@exp^0,f,c
  3270   0020F2  90D8               	bcf	status,0,c
  3271   0020F4  320E               	rrcf	(___xxtofl@arg+3)^0,f,c
  3272   0020F6  320D               	rrcf	(___xxtofl@arg+2)^0,f,c
  3273   0020F8  320C               	rrcf	(___xxtofl@arg+1)^0,f,c
  3274   0020FA  320B               	rrcf	___xxtofl@arg^0,f,c
  3275   0020FC                     i1l1805:
  3276   0020FC  0E00               	movlw	0
  3277   0020FE  140B               	andwf	___xxtofl@arg^0,w,c
  3278   002100  6E05               	movwf	??___xxtofl^0,c
  3279   002102  0E00               	movlw	0
  3280   002104  140C               	andwf	(___xxtofl@arg+1)^0,w,c
  3281   002106  6E06               	movwf	(??___xxtofl+1)^0,c
  3282   002108  0E00               	movlw	0
  3283   00210A  140D               	andwf	(___xxtofl@arg+2)^0,w,c
  3284   00210C  6E07               	movwf	(??___xxtofl+2)^0,c
  3285   00210E  0EFE               	movlw	254
  3286   002110  140E               	andwf	(___xxtofl@arg+3)^0,w,c
  3287   002112  6E08               	movwf	(??___xxtofl+3)^0,c
  3288   002114  5005               	movf	??___xxtofl^0,w,c
  3289   002116  1006               	iorwf	(??___xxtofl+1)^0,w,c
  3290   002118  1007               	iorwf	(??___xxtofl+2)^0,w,c
  3291   00211A  1008               	iorwf	(??___xxtofl+3)^0,w,c
  3292   00211C  A4D8               	btfss	status,2,c
  3293   00211E  EF93  F010         	goto	i1u134_21
  3294   002122  EF95  F010         	goto	i1u134_20
  3295   002126                     i1u134_21:
  3296   002126  EF78  F010         	goto	i1l1803
  3297   00212A                     i1u134_20:
  3298   00212A  EFA3  F010         	goto	i1l897
  3299   00212E                     i1l1807:
  3300   00212E  2A0A               	incf	___xxtofl@exp^0,f,c
  3301   002130  0E01               	movlw	1
  3302   002132  260B               	addwf	___xxtofl@arg^0,f,c
  3303   002134  0E00               	movlw	0
  3304   002136  220C               	addwfc	(___xxtofl@arg+1)^0,f,c
  3305   002138  220D               	addwfc	(___xxtofl@arg+2)^0,f,c
  3306   00213A  220E               	addwfc	(___xxtofl@arg+3)^0,f,c
  3307   00213C  90D8               	bcf	status,0,c
  3308   00213E  320E               	rrcf	(___xxtofl@arg+3)^0,f,c
  3309   002140  320D               	rrcf	(___xxtofl@arg+2)^0,f,c
  3310   002142  320C               	rrcf	(___xxtofl@arg+1)^0,f,c
  3311   002144  320B               	rrcf	___xxtofl@arg^0,f,c
  3312   002146                     i1l897:
  3313   002146  0E00               	movlw	0
  3314   002148  140B               	andwf	___xxtofl@arg^0,w,c
  3315   00214A  6E05               	movwf	??___xxtofl^0,c
  3316   00214C  0E00               	movlw	0
  3317   00214E  140C               	andwf	(___xxtofl@arg+1)^0,w,c
  3318   002150  6E06               	movwf	(??___xxtofl+1)^0,c
  3319   002152  0E00               	movlw	0
  3320   002154  140D               	andwf	(___xxtofl@arg+2)^0,w,c
  3321   002156  6E07               	movwf	(??___xxtofl+2)^0,c
  3322   002158  0EFF               	movlw	255
  3323   00215A  140E               	andwf	(___xxtofl@arg+3)^0,w,c
  3324   00215C  6E08               	movwf	(??___xxtofl+3)^0,c
  3325   00215E  5005               	movf	??___xxtofl^0,w,c
  3326   002160  1006               	iorwf	(??___xxtofl+1)^0,w,c
  3327   002162  1007               	iorwf	(??___xxtofl+2)^0,w,c
  3328   002164  1008               	iorwf	(??___xxtofl+3)^0,w,c
  3329   002166  A4D8               	btfss	status,2,c
  3330   002168  EFB8  F010         	goto	i1u135_21
  3331   00216C  EFBA  F010         	goto	i1u135_20
  3332   002170                     i1u135_21:
  3333   002170  EF97  F010         	goto	i1l1807
  3334   002174                     i1u135_20:
  3335   002174  EFC2  F010         	goto	i1l1815
  3336   002178                     i1l1813:
  3337   002178  060A               	decf	___xxtofl@exp^0,f,c
  3338   00217A  90D8               	bcf	status,0,c
  3339   00217C  360B               	rlcf	___xxtofl@arg^0,f,c
  3340   00217E  360C               	rlcf	(___xxtofl@arg+1)^0,f,c
  3341   002180  360D               	rlcf	(___xxtofl@arg+2)^0,f,c
  3342   002182  360E               	rlcf	(___xxtofl@arg+3)^0,f,c
  3343   002184                     i1l1815:
  3344   002184  BE0D               	btfsc	(___xxtofl@arg+2)^0,7,c
  3345   002186  EFC7  F010         	goto	i1u136_21
  3346   00218A  EFC9  F010         	goto	i1u136_20
  3347   00218E                     i1u136_21:
  3348   00218E  EFD1  F010         	goto	i1l904
  3349   002192                     i1u136_20:
  3350   002192  0E02               	movlw	2
  3351   002194  600A               	cpfslt	___xxtofl@exp^0,c
  3352   002196  EFCF  F010         	goto	i1u137_21
  3353   00219A  EFD1  F010         	goto	i1u137_20
  3354   00219E                     i1u137_21:
  3355   00219E  EFBC  F010         	goto	i1l1813
  3356   0021A2                     i1u137_20:
  3357   0021A2                     i1l904:
  3358   0021A2  B00A               	btfsc	___xxtofl@exp^0,0,c
  3359   0021A4  EFD6  F010         	goto	i1u138_21
  3360   0021A8  EFD8  F010         	goto	i1u138_20
  3361   0021AC                     i1u138_21:
  3362   0021AC  EFD9  F010         	goto	i1l1821
  3363   0021B0                     i1u138_20:
  3364   0021B0  9E0D               	bcf	(___xxtofl@arg+2)^0,7,c
  3365   0021B2                     i1l1821:
  3366   0021B2  90D8               	bcf	status,0,c
  3367   0021B4  320A               	rrcf	___xxtofl@exp^0,f,c
  3368   0021B6  C00A  F005         	movff	___xxtofl@exp,??___xxtofl
  3369   0021BA  6A06               	clrf	(??___xxtofl+1)^0,c
  3370   0021BC  6A07               	clrf	(??___xxtofl+2)^0,c
  3371   0021BE  6A08               	clrf	(??___xxtofl+3)^0,c
  3372   0021C0  C005  F008         	movff	??___xxtofl,??___xxtofl+3
  3373   0021C4  6A07               	clrf	(??___xxtofl+2)^0,c
  3374   0021C6  6A06               	clrf	(??___xxtofl+1)^0,c
  3375   0021C8  6A05               	clrf	??___xxtofl^0,c
  3376   0021CA  5005               	movf	??___xxtofl^0,w,c
  3377   0021CC  120B               	iorwf	___xxtofl@arg^0,f,c
  3378   0021CE  5006               	movf	(??___xxtofl+1)^0,w,c
  3379   0021D0  120C               	iorwf	(___xxtofl@arg+1)^0,f,c
  3380   0021D2  5007               	movf	(??___xxtofl+2)^0,w,c
  3381   0021D4  120D               	iorwf	(___xxtofl@arg+2)^0,f,c
  3382   0021D6  5008               	movf	(??___xxtofl+3)^0,w,c
  3383   0021D8  120E               	iorwf	(___xxtofl@arg+3)^0,f,c
  3384   0021DA  5009               	movf	___xxtofl@sign^0,w,c
  3385   0021DC  B4D8               	btfsc	status,2,c
  3386   0021DE  EFF3  F010         	goto	i1u139_21
  3387   0021E2  EFF5  F010         	goto	i1u139_20
  3388   0021E6                     i1u139_21:
  3389   0021E6  EFFD  F010         	goto	i1l1831
  3390   0021EA                     i1u139_20:
  3391   0021EA  BE04               	btfsc	(___xxtofl@val+3)^0,7,c
  3392   0021EC  EFFC  F010         	goto	i1u140_20
  3393   0021F0  EFFA  F010         	goto	i1u140_21
  3394   0021F4                     i1u140_21:
  3395   0021F4  EFFD  F010         	goto	i1l1831
  3396   0021F8                     i1u140_20:
  3397   0021F8  8E0E               	bsf	(___xxtofl@arg+3)^0,7,c
  3398   0021FA                     i1l1831:
  3399   0021FA  C00B  F001         	movff	___xxtofl@arg,?___xxtofl
  3400   0021FE  C00C  F002         	movff	___xxtofl@arg+1,?___xxtofl+1
  3401   002202  C00D  F003         	movff	___xxtofl@arg+2,?___xxtofl+2
  3402   002206  C00E  F004         	movff	___xxtofl@arg+3,?___xxtofl+3
  3403   00220A                     i1l893:
  3404   00220A  0012               	return		;funcret
  3405   00220C                     __end_of___xxtofl:
  3406                           	callstack 0
  3407                           
  3408 ;; *************** function ___wmul *****************
  3409 ;; Defined at:
  3410 ;;		line 15 in file "C:\Program Files\Microchip\xc8\v2.46\pic\sources\c99\common\Umul16.c"
  3411 ;; Parameters:    Size  Location     Type
  3412 ;;  multiplier      2    0[COMRAM] unsigned int 
  3413 ;;  multiplicand    2    2[COMRAM] unsigned int 
  3414 ;; Auto vars:     Size  Location     Type
  3415 ;;  product         2    4[COMRAM] unsigned int 
  3416 ;; Return value:  Size  Location     Type
  3417 ;;                  2    0[COMRAM] unsigned int 
  3418 ;; Registers used:
  3419 ;;		wreg, status,2, status,0, prodl, prodh
  3420 ;; Tracked objects:
  3421 ;;		On entry : 0/0
  3422 ;;		On exit  : 0/0
  3423 ;;		Unchanged: 0/0
  3424 ;; Data sizes:     COMRAM   BANK0   BANK1   BANK2   BANK3   BANK4   BANK5   BANK6   BANK7
  3425 ;;      Params:         4       0       0       0       0       0       0       0       0
  3426 ;;      Locals:         2       0       0       0       0       0       0       0       0
  3427 ;;      Temps:          0       0       0       0       0       0       0       0       0
  3428 ;;      Totals:         6       0       0       0       0       0       0       0       0
  3429 ;;Total ram usage:        6 bytes
  3430 ;; Hardware stack levels used: 1
  3431 ;; Hardware stack levels required when called: 1
  3432 ;; This function calls:
  3433 ;;		Nothing
  3434 ;; This function is called by:
  3435 ;;		_lint
  3436 ;; This function uses a non-reentrant model
  3437 ;;
  3438                           
  3439                           	psect	text5
  3440   002538                     __ptext5:
  3441                           	callstack 0
  3442   002538                     ___wmul:
  3443                           	callstack 27
  3444   002538  5001               	movf	___wmul@multiplier^0,w,c
  3445   00253A  0203               	mulwf	___wmul@multiplicand^0,c
  3446   00253C  CFF3 F005          	movff	prodl,___wmul@product
  3447   002540  CFF4 F006          	movff	prodh,___wmul@product+1
  3448   002544  5001               	movf	___wmul@multiplier^0,w,c
  3449   002546  0204               	mulwf	(___wmul@multiplicand+1)^0,c
  3450   002548  50F3               	movf	243,w,c
  3451   00254A  2606               	addwf	(___wmul@product+1)^0,f,c
  3452   00254C  5002               	movf	(___wmul@multiplier+1)^0,w,c
  3453   00254E  0203               	mulwf	___wmul@multiplicand^0,c
  3454   002550  50F3               	movf	243,w,c
  3455   002552  2606               	addwf	(___wmul@product+1)^0,f,c
  3456   002554  C005  F001         	movff	___wmul@product,?___wmul
  3457   002558  C006  F002         	movff	___wmul@product+1,?___wmul+1
  3458   00255C  0012               	return		;funcret
  3459   00255E                     __end_of___wmul:
  3460                           	callstack 0
  3461                           
  3462 ;; *************** function ___fltol *****************
  3463 ;; Defined at:
  3464 ;;		line 43 in file "C:\Program Files\Microchip\xc8\v2.46\pic\sources\c99\common\fltol.c"
  3465 ;; Parameters:    Size  Location     Type
  3466 ;;  f1              4   22[COMRAM] unsigned int 
  3467 ;; Auto vars:     Size  Location     Type
  3468 ;;  exp1            1   31[COMRAM] unsigned char 
  3469 ;;  sign1           1   30[COMRAM] unsigned char 
  3470 ;; Return value:  Size  Location     Type
  3471 ;;                  4   22[COMRAM] long 
  3472 ;; Registers used:
  3473 ;;		wreg, status,2, status,0
  3474 ;; Tracked objects:
  3475 ;;		On entry : 0/0
  3476 ;;		On exit  : 0/0
  3477 ;;		Unchanged: 0/0
  3478 ;; Data sizes:     COMRAM   BANK0   BANK1   BANK2   BANK3   BANK4   BANK5   BANK6   BANK7
  3479 ;;      Params:         4       0       0       0       0       0       0       0       0
  3480 ;;      Locals:         2       0       0       0       0       0       0       0       0
  3481 ;;      Temps:          4       0       0       0       0       0       0       0       0
  3482 ;;      Totals:        10       0       0       0       0       0       0       0       0
  3483 ;;Total ram usage:       10 bytes
  3484 ;; Hardware stack levels used: 1
  3485 ;; Hardware stack levels required when called: 1
  3486 ;; This function calls:
  3487 ;;		Nothing
  3488 ;; This function is called by:
  3489 ;;		_lint
  3490 ;; This function uses a non-reentrant model
  3491 ;;
  3492                           
  3493                           	psect	text6
  3494   00220C                     __ptext6:
  3495                           	callstack 0
  3496   00220C                     ___fltol:
  3497                           	callstack 27
  3498   00220C  3419               	rlcf	(___fltol@f1+2)^0,w,c
  3499   00220E  341A               	rlcf	(___fltol@f1+3)^0,w,c
  3500   002210  6E20               	movwf	___fltol@exp1^0,c
  3501   002212  5020               	movf	___fltol@exp1^0,w,c
  3502   002214  A4D8               	btfss	status,2,c
  3503   002216  EF0F  F011         	goto	i1u124_21
  3504   00221A  EF11  F011         	goto	i1u124_20
  3505   00221E                     i1u124_21:
  3506   00221E  EF1B  F011         	goto	i1l1751
  3507   002222                     i1u124_20:
  3508   002222                     i1l1747:
  3509   002222  0E00               	movlw	0
  3510   002224  6E17               	movwf	?___fltol^0,c
  3511   002226  0E00               	movlw	0
  3512   002228  6E18               	movwf	(?___fltol+1)^0,c
  3513   00222A  0E00               	movlw	0
  3514   00222C  6E19               	movwf	(?___fltol+2)^0,c
  3515   00222E  0E00               	movlw	0
  3516   002230  6E1A               	movwf	(?___fltol+3)^0,c
  3517   002232  EF88  F011         	goto	i1l532
  3518   002236                     i1l1751:
  3519   002236  C017  F01B         	movff	___fltol@f1,??___fltol
  3520   00223A  C018  F01C         	movff	___fltol@f1+1,??___fltol+1
  3521   00223E  C019  F01D         	movff	___fltol@f1+2,??___fltol+2
  3522   002242  C01A  F01E         	movff	___fltol@f1+3,??___fltol+3
  3523   002246  0E20               	movlw	32
  3524   002248  EF2B  F011         	goto	i1u125_20
  3525   00224C                     i1u125_25:
  3526   00224C  90D8               	bcf	status,0,c
  3527   00224E  321E               	rrcf	(??___fltol+3)^0,f,c
  3528   002250  321D               	rrcf	(??___fltol+2)^0,f,c
  3529   002252  321C               	rrcf	(??___fltol+1)^0,f,c
  3530   002254  321B               	rrcf	??___fltol^0,f,c
  3531   002256                     i1u125_20:
  3532   002256  2EE8               	decfsz	wreg,f,c
  3533   002258  EF26  F011         	goto	i1u125_25
  3534   00225C  501B               	movf	??___fltol^0,w,c
  3535   00225E  6E1F               	movwf	___fltol@sign1^0,c
  3536   002260  8E19               	bsf	(___fltol@f1+2)^0,7,c
  3537   002262  0EFF               	movlw	255
  3538   002264  1617               	andwf	___fltol@f1^0,f,c
  3539   002266  0EFF               	movlw	255
  3540   002268  1618               	andwf	(___fltol@f1+1)^0,f,c
  3541   00226A  0EFF               	movlw	255
  3542   00226C  1619               	andwf	(___fltol@f1+2)^0,f,c
  3543   00226E  0E00               	movlw	0
  3544   002270  161A               	andwf	(___fltol@f1+3)^0,f,c
  3545   002272  0E96               	movlw	150
  3546   002274  5E20               	subwf	___fltol@exp1^0,f,c
  3547   002276  BE20               	btfsc	___fltol@exp1^0,7,c
  3548   002278  EF42  F011         	goto	i1u126_20
  3549   00227C  EF40  F011         	goto	i1u126_21
  3550   002280                     i1u126_21:
  3551   002280  EF58  F011         	goto	i1l1771
  3552   002284                     i1u126_20:
  3553   002284  5020               	movf	___fltol@exp1^0,w,c
  3554   002286  0A80               	xorlw	128
  3555   002288  0F97               	addlw	151
  3556   00228A  B0D8               	btfsc	status,0,c
  3557   00228C  EF4A  F011         	goto	i1u127_21
  3558   002290  EF4C  F011         	goto	i1u127_20
  3559   002294                     i1u127_21:
  3560   002294  EF4E  F011         	goto	i1l1767
  3561   002298                     i1u127_20:
  3562   002298  EF11  F011         	goto	i1l1747
  3563   00229C                     i1l1767:
  3564   00229C  90D8               	bcf	status,0,c
  3565   00229E  321A               	rrcf	(___fltol@f1+3)^0,f,c
  3566   0022A0  3219               	rrcf	(___fltol@f1+2)^0,f,c
  3567   0022A2  3218               	rrcf	(___fltol@f1+1)^0,f,c
  3568   0022A4  3217               	rrcf	___fltol@f1^0,f,c
  3569   0022A6  3E20               	incfsz	___fltol@exp1^0,f,c
  3570   0022A8  EF4E  F011         	goto	i1l1767
  3571   0022AC  EF70  F011         	goto	i1l1781
  3572   0022B0                     i1l1771:
  3573   0022B0  0E1F               	movlw	31
  3574   0022B2  6420               	cpfsgt	___fltol@exp1^0,c
  3575   0022B4  EF5E  F011         	goto	i1u128_21
  3576   0022B8  EF60  F011         	goto	i1u128_20
  3577   0022BC                     i1u128_21:
  3578   0022BC  EF68  F011         	goto	i1l1779
  3579   0022C0                     i1u128_20:
  3580   0022C0  EF11  F011         	goto	i1l1747
  3581   0022C4                     i1l1777:
  3582   0022C4  90D8               	bcf	status,0,c
  3583   0022C6  3617               	rlcf	___fltol@f1^0,f,c
  3584   0022C8  3618               	rlcf	(___fltol@f1+1)^0,f,c
  3585   0022CA  3619               	rlcf	(___fltol@f1+2)^0,f,c
  3586   0022CC  361A               	rlcf	(___fltol@f1+3)^0,f,c
  3587   0022CE  0620               	decf	___fltol@exp1^0,f,c
  3588   0022D0                     i1l1779:
  3589   0022D0  5020               	movf	___fltol@exp1^0,w,c
  3590   0022D2  A4D8               	btfss	status,2,c
  3591   0022D4  EF6E  F011         	goto	i1u129_21
  3592   0022D8  EF70  F011         	goto	i1u129_20
  3593   0022DC                     i1u129_21:
  3594   0022DC  EF62  F011         	goto	i1l1777
  3595   0022E0                     i1u129_20:
  3596   0022E0                     i1l1781:
  3597   0022E0  501F               	movf	___fltol@sign1^0,w,c
  3598   0022E2  B4D8               	btfsc	status,2,c
  3599   0022E4  EF76  F011         	goto	i1u130_21
  3600   0022E8  EF78  F011         	goto	i1u130_20
  3601   0022EC                     i1u130_21:
  3602   0022EC  EF80  F011         	goto	i1l1785
  3603   0022F0                     i1u130_20:
  3604   0022F0  1E1A               	comf	(___fltol@f1+3)^0,f,c
  3605   0022F2  1E19               	comf	(___fltol@f1+2)^0,f,c
  3606   0022F4  1E18               	comf	(___fltol@f1+1)^0,f,c
  3607   0022F6  6C17               	negf	___fltol@f1^0,c
  3608   0022F8  0E00               	movlw	0
  3609   0022FA  2218               	addwfc	(___fltol@f1+1)^0,f,c
  3610   0022FC  2219               	addwfc	(___fltol@f1+2)^0,f,c
  3611   0022FE  221A               	addwfc	(___fltol@f1+3)^0,f,c
  3612   002300                     i1l1785:
  3613   002300  C017  F017         	movff	___fltol@f1,?___fltol
  3614   002304  C018  F018         	movff	___fltol@f1+1,?___fltol+1
  3615   002308  C019  F019         	movff	___fltol@f1+2,?___fltol+2
  3616   00230C  C01A  F01A         	movff	___fltol@f1+3,?___fltol+3
  3617   002310                     i1l532:
  3618   002310  0012               	return		;funcret
  3619   002312                     __end_of___fltol:
  3620                           	callstack 0
  3621                           
  3622 ;; *************** function ___awmod *****************
  3623 ;; Defined at:
  3624 ;;		line 7 in file "C:\Program Files\Microchip\xc8\v2.46\pic\sources\c99\common\awmod.c"
  3625 ;; Parameters:    Size  Location     Type
  3626 ;;  dividend        2    8[COMRAM] int 
  3627 ;;  divisor         2   10[COMRAM] int 
  3628 ;; Auto vars:     Size  Location     Type
  3629 ;;  sign            1   13[COMRAM] unsigned char 
  3630 ;;  counter         1   12[COMRAM] unsigned char 
  3631 ;; Return value:  Size  Location     Type
  3632 ;;                  2    8[COMRAM] int 
  3633 ;; Registers used:
  3634 ;;		wreg, status,2, status,0
  3635 ;; Tracked objects:
  3636 ;;		On entry : 0/0
  3637 ;;		On exit  : 0/0
  3638 ;;		Unchanged: 0/0
  3639 ;; Data sizes:     COMRAM   BANK0   BANK1   BANK2   BANK3   BANK4   BANK5   BANK6   BANK7
  3640 ;;      Params:         4       0       0       0       0       0       0       0       0
  3641 ;;      Locals:         2       0       0       0       0       0       0       0       0
  3642 ;;      Temps:          0       0       0       0       0       0       0       0       0
  3643 ;;      Totals:         6       0       0       0       0       0       0       0       0
  3644 ;;Total ram usage:        6 bytes
  3645 ;; Hardware stack levels used: 1
  3646 ;; Hardware stack levels required when called: 1
  3647 ;; This function calls:
  3648 ;;		Nothing
  3649 ;; This function is called by:
  3650 ;;		_lint
  3651 ;; This function uses a non-reentrant model
  3652 ;;
  3653                           
  3654                           	psect	text7
  3655   0023D6                     __ptext7:
  3656                           	callstack 0
  3657   0023D6                     ___awmod:
  3658                           	callstack 27
  3659   0023D6  0E00               	movlw	0
  3660   0023D8  6E0E               	movwf	___awmod@sign^0,c
  3661   0023DA  BE0A               	btfsc	(___awmod@dividend+1)^0,7,c
  3662   0023DC  EFF4  F011         	goto	i1u118_20
  3663   0023E0  EFF2  F011         	goto	i1u118_21
  3664   0023E4                     i1u118_21:
  3665   0023E4  EFFA  F011         	goto	i1l1717
  3666   0023E8                     i1u118_20:
  3667   0023E8  6C09               	negf	___awmod@dividend^0,c
  3668   0023EA  1E0A               	comf	(___awmod@dividend+1)^0,f,c
  3669   0023EC  B0D8               	btfsc	status,0,c
  3670   0023EE  2A0A               	incf	(___awmod@dividend+1)^0,f,c
  3671   0023F0  0E01               	movlw	1
  3672   0023F2  6E0E               	movwf	___awmod@sign^0,c
  3673   0023F4                     i1l1717:
  3674   0023F4  BE0C               	btfsc	(___awmod@divisor+1)^0,7,c
  3675   0023F6  EF01  F012         	goto	i1u119_20
  3676   0023FA  EFFF  F011         	goto	i1u119_21
  3677   0023FE                     i1u119_21:
  3678   0023FE  EF05  F012         	goto	i1l1721
  3679   002402                     i1u119_20:
  3680   002402  6C0B               	negf	___awmod@divisor^0,c
  3681   002404  1E0C               	comf	(___awmod@divisor+1)^0,f,c
  3682   002406  B0D8               	btfsc	status,0,c
  3683   002408  2A0C               	incf	(___awmod@divisor+1)^0,f,c
  3684   00240A                     i1l1721:
  3685   00240A  500B               	movf	___awmod@divisor^0,w,c
  3686   00240C  100C               	iorwf	(___awmod@divisor+1)^0,w,c
  3687   00240E  B4D8               	btfsc	status,2,c
  3688   002410  EF0C  F012         	goto	i1u120_21
  3689   002414  EF0E  F012         	goto	i1u120_20
  3690   002418                     i1u120_21:
  3691   002418  EF32  F012         	goto	i1l1737
  3692   00241C                     i1u120_20:
  3693   00241C  0E01               	movlw	1
  3694   00241E  6E0D               	movwf	___awmod@counter^0,c
  3695   002420  EF16  F012         	goto	i1l1727
  3696   002424                     i1l1725:
  3697   002424  90D8               	bcf	status,0,c
  3698   002426  360B               	rlcf	___awmod@divisor^0,f,c
  3699   002428  360C               	rlcf	(___awmod@divisor+1)^0,f,c
  3700   00242A  2A0D               	incf	___awmod@counter^0,f,c
  3701   00242C                     i1l1727:
  3702   00242C  AE0C               	btfss	(___awmod@divisor+1)^0,7,c
  3703   00242E  EF1B  F012         	goto	i1u121_21
  3704   002432  EF1D  F012         	goto	i1u121_20
  3705   002436                     i1u121_21:
  3706   002436  EF12  F012         	goto	i1l1725
  3707   00243A                     i1u121_20:
  3708   00243A                     i1l1729:
  3709   00243A  500B               	movf	___awmod@divisor^0,w,c
  3710   00243C  5C09               	subwf	___awmod@dividend^0,w,c
  3711   00243E  500C               	movf	(___awmod@divisor+1)^0,w,c
  3712   002440  580A               	subwfb	(___awmod@dividend+1)^0,w,c
  3713   002442  A0D8               	btfss	status,0,c
  3714   002444  EF26  F012         	goto	i1u122_21
  3715   002448  EF28  F012         	goto	i1u122_20
  3716   00244C                     i1u122_21:
  3717   00244C  EF2C  F012         	goto	i1l1733
  3718   002450                     i1u122_20:
  3719   002450  500B               	movf	___awmod@divisor^0,w,c
  3720   002452  5E09               	subwf	___awmod@dividend^0,f,c
  3721   002454  500C               	movf	(___awmod@divisor+1)^0,w,c
  3722   002456  5A0A               	subwfb	(___awmod@dividend+1)^0,f,c
  3723   002458                     i1l1733:
  3724   002458  90D8               	bcf	status,0,c
  3725   00245A  320C               	rrcf	(___awmod@divisor+1)^0,f,c
  3726   00245C  320B               	rrcf	___awmod@divisor^0,f,c
  3727   00245E  2E0D               	decfsz	___awmod@counter^0,f,c
  3728   002460  EF1D  F012         	goto	i1l1729
  3729   002464                     i1l1737:
  3730   002464  500E               	movf	___awmod@sign^0,w,c
  3731   002466  B4D8               	btfsc	status,2,c
  3732   002468  EF38  F012         	goto	i1u123_21
  3733   00246C  EF3A  F012         	goto	i1u123_20
  3734   002470                     i1u123_21:
  3735   002470  EF3E  F012         	goto	i1l1741
  3736   002474                     i1u123_20:
  3737   002474  6C09               	negf	___awmod@dividend^0,c
  3738   002476  1E0A               	comf	(___awmod@dividend+1)^0,f,c
  3739   002478  B0D8               	btfsc	status,0,c
  3740   00247A  2A0A               	incf	(___awmod@dividend+1)^0,f,c
  3741   00247C                     i1l1741:
  3742   00247C  C009  F009         	movff	___awmod@dividend,?___awmod
  3743   002480  C00A  F00A         	movff	___awmod@dividend+1,?___awmod+1
  3744   002484  0012               	return		;funcret
  3745   002486                     __end_of___awmod:
  3746                           	callstack 0
  3747                           
  3748 ;; *************** function ___awdiv *****************
  3749 ;; Defined at:
  3750 ;;		line 7 in file "C:\Program Files\Microchip\xc8\v2.46\pic\sources\c99\common\awdiv.c"
  3751 ;; Parameters:    Size  Location     Type
  3752 ;;  dividend        2    0[COMRAM] int 
  3753 ;;  divisor         2    2[COMRAM] int 
  3754 ;; Auto vars:     Size  Location     Type
  3755 ;;  quotient        2    6[COMRAM] int 
  3756 ;;  sign            1    5[COMRAM] unsigned char 
  3757 ;;  counter         1    4[COMRAM] unsigned char 
  3758 ;; Return value:  Size  Location     Type
  3759 ;;                  2    0[COMRAM] int 
  3760 ;; Registers used:
  3761 ;;		wreg, status,2, status,0
  3762 ;; Tracked objects:
  3763 ;;		On entry : 0/0
  3764 ;;		On exit  : 0/0
  3765 ;;		Unchanged: 0/0
  3766 ;; Data sizes:     COMRAM   BANK0   BANK1   BANK2   BANK3   BANK4   BANK5   BANK6   BANK7
  3767 ;;      Params:         4       0       0       0       0       0       0       0       0
  3768 ;;      Locals:         4       0       0       0       0       0       0       0       0
  3769 ;;      Temps:          0       0       0       0       0       0       0       0       0
  3770 ;;      Totals:         8       0       0       0       0       0       0       0       0
  3771 ;;Total ram usage:        8 bytes
  3772 ;; Hardware stack levels used: 1
  3773 ;; Hardware stack levels required when called: 1
  3774 ;; This function calls:
  3775 ;;		Nothing
  3776 ;; This function is called by:
  3777 ;;		_lint
  3778 ;; This function uses a non-reentrant model
  3779 ;;
  3780                           
  3781                           	psect	text8
  3782   002312                     __ptext8:
  3783                           	callstack 0
  3784   002312                     ___awdiv:
  3785                           	callstack 27
  3786   002312  0E00               	movlw	0
  3787   002314  6E06               	movwf	___awdiv@sign^0,c
  3788   002316  BE04               	btfsc	(___awdiv@divisor+1)^0,7,c
  3789   002318  EF92  F011         	goto	i1u112_20
  3790   00231C  EF90  F011         	goto	i1u112_21
  3791   002320                     i1u112_21:
  3792   002320  EF98  F011         	goto	i1l1673
  3793   002324                     i1u112_20:
  3794   002324  6C03               	negf	___awdiv@divisor^0,c
  3795   002326  1E04               	comf	(___awdiv@divisor+1)^0,f,c
  3796   002328  B0D8               	btfsc	status,0,c
  3797   00232A  2A04               	incf	(___awdiv@divisor+1)^0,f,c
  3798   00232C  0E01               	movlw	1
  3799   00232E  6E06               	movwf	___awdiv@sign^0,c
  3800   002330                     i1l1673:
  3801   002330  BE02               	btfsc	(___awdiv@dividend+1)^0,7,c
  3802   002332  EF9F  F011         	goto	i1u113_20
  3803   002336  EF9D  F011         	goto	i1u113_21
  3804   00233A                     i1u113_21:
  3805   00233A  EFA5  F011         	goto	i1l1679
  3806   00233E                     i1u113_20:
  3807   00233E  6C01               	negf	___awdiv@dividend^0,c
  3808   002340  1E02               	comf	(___awdiv@dividend+1)^0,f,c
  3809   002342  B0D8               	btfsc	status,0,c
  3810   002344  2A02               	incf	(___awdiv@dividend+1)^0,f,c
  3811   002346  0E01               	movlw	1
  3812   002348  1A06               	xorwf	___awdiv@sign^0,f,c
  3813   00234A                     i1l1679:
  3814   00234A  0E00               	movlw	0
  3815   00234C  6E08               	movwf	(___awdiv@quotient+1)^0,c
  3816   00234E  0E00               	movlw	0
  3817   002350  6E07               	movwf	___awdiv@quotient^0,c
  3818   002352  5003               	movf	___awdiv@divisor^0,w,c
  3819   002354  1004               	iorwf	(___awdiv@divisor+1)^0,w,c
  3820   002356  B4D8               	btfsc	status,2,c
  3821   002358  EFB0  F011         	goto	i1u114_21
  3822   00235C  EFB2  F011         	goto	i1u114_20
  3823   002360                     i1u114_21:
  3824   002360  EFDA  F011         	goto	i1l1701
  3825   002364                     i1u114_20:
  3826   002364  0E01               	movlw	1
  3827   002366  6E05               	movwf	___awdiv@counter^0,c
  3828   002368  EFBA  F011         	goto	i1l1687
  3829   00236C                     i1l1685:
  3830   00236C  90D8               	bcf	status,0,c
  3831   00236E  3603               	rlcf	___awdiv@divisor^0,f,c
  3832   002370  3604               	rlcf	(___awdiv@divisor+1)^0,f,c
  3833   002372  2A05               	incf	___awdiv@counter^0,f,c
  3834   002374                     i1l1687:
  3835   002374  AE04               	btfss	(___awdiv@divisor+1)^0,7,c
  3836   002376  EFBF  F011         	goto	i1u115_21
  3837   00237A  EFC1  F011         	goto	i1u115_20
  3838   00237E                     i1u115_21:
  3839   00237E  EFB6  F011         	goto	i1l1685
  3840   002382                     i1u115_20:
  3841   002382                     i1l1689:
  3842   002382  90D8               	bcf	status,0,c
  3843   002384  3607               	rlcf	___awdiv@quotient^0,f,c
  3844   002386  3608               	rlcf	(___awdiv@quotient+1)^0,f,c
  3845   002388  5003               	movf	___awdiv@divisor^0,w,c
  3846   00238A  5C01               	subwf	___awdiv@dividend^0,w,c
  3847   00238C  5004               	movf	(___awdiv@divisor+1)^0,w,c
  3848   00238E  5802               	subwfb	(___awdiv@dividend+1)^0,w,c
  3849   002390  A0D8               	btfss	status,0,c
  3850   002392  EFCD  F011         	goto	i1u116_21
  3851   002396  EFCF  F011         	goto	i1u116_20
  3852   00239A                     i1u116_21:
  3853   00239A  EFD4  F011         	goto	i1l1697
  3854   00239E                     i1u116_20:
  3855   00239E  5003               	movf	___awdiv@divisor^0,w,c
  3856   0023A0  5E01               	subwf	___awdiv@dividend^0,f,c
  3857   0023A2  5004               	movf	(___awdiv@divisor+1)^0,w,c
  3858   0023A4  5A02               	subwfb	(___awdiv@dividend+1)^0,f,c
  3859   0023A6  8007               	bsf	___awdiv@quotient^0,0,c
  3860   0023A8                     i1l1697:
  3861   0023A8  90D8               	bcf	status,0,c
  3862   0023AA  3204               	rrcf	(___awdiv@divisor+1)^0,f,c
  3863   0023AC  3203               	rrcf	___awdiv@divisor^0,f,c
  3864   0023AE  2E05               	decfsz	___awdiv@counter^0,f,c
  3865   0023B0  EFC1  F011         	goto	i1l1689
  3866   0023B4                     i1l1701:
  3867   0023B4  5006               	movf	___awdiv@sign^0,w,c
  3868   0023B6  B4D8               	btfsc	status,2,c
  3869   0023B8  EFE0  F011         	goto	i1u117_21
  3870   0023BC  EFE2  F011         	goto	i1u117_20
  3871   0023C0                     i1u117_21:
  3872   0023C0  EFE6  F011         	goto	i1l1705
  3873   0023C4                     i1u117_20:
  3874   0023C4  6C07               	negf	___awdiv@quotient^0,c
  3875   0023C6  1E08               	comf	(___awdiv@quotient+1)^0,f,c
  3876   0023C8  B0D8               	btfsc	status,0,c
  3877   0023CA  2A08               	incf	(___awdiv@quotient+1)^0,f,c
  3878   0023CC                     i1l1705:
  3879   0023CC  C007  F001         	movff	___awdiv@quotient,?___awdiv
  3880   0023D0  C008  F002         	movff	___awdiv@quotient+1,?___awdiv+1
  3881   0023D4  0012               	return		;funcret
  3882   0023D6                     __end_of___awdiv:
  3883                           	callstack 0
  3884                           
  3885 ;; *************** function _hint *****************
  3886 ;; Defined at:
  3887 ;;		line 39 in file "main.c"
  3888 ;; Parameters:    Size  Location     Type
  3889 ;;		None
  3890 ;; Auto vars:     Size  Location     Type
  3891 ;;		None
  3892 ;; Return value:  Size  Location     Type
  3893 ;;                  1    wreg      void 
  3894 ;; Registers used:
  3895 ;;		None
  3896 ;; Tracked objects:
  3897 ;;		On entry : 0/0
  3898 ;;		On exit  : 0/0
  3899 ;;		Unchanged: 0/0
  3900 ;; Data sizes:     COMRAM   BANK0   BANK1   BANK2   BANK3   BANK4   BANK5   BANK6   BANK7
  3901 ;;      Params:         0       0       0       0       0       0       0       0       0
  3902 ;;      Locals:         0       0       0       0       0       0       0       0       0
  3903 ;;      Temps:          0       0       0       0       0       0       0       0       0
  3904 ;;      Totals:         0       0       0       0       0       0       0       0       0
  3905 ;;Total ram usage:        0 bytes
  3906 ;; Hardware stack levels used: 1
  3907 ;; This function calls:
  3908 ;;		Nothing
  3909 ;; This function is called by:
  3910 ;;		Interrupt level 2
  3911 ;; This function uses a non-reentrant model
  3912 ;;
  3913                           
  3914                           	psect	intcode
  3915   001008                     __pintcode:
  3916                           	callstack 0
  3917   001008                     _hint:
  3918                           	callstack 27
  3919                           
  3920                           ;incstack = 0
  3921   001008  824B               	bsf	int$flags,1,c	;set compiler interrupt flag (level 2)
  3922   00100A  EFCE  F012         	goto	int_func
  3923                           
  3924                           	psect	intcode_body
  3925   00259C                     __pintcode_body:
  3926                           	callstack 27
  3927   00259C                     int_func:
  3928                           	callstack 27
  3929   00259C                     
  3930                           ;main.c: 42:   INTCONbits.INT0F=0;
  3931   00259C  92F2               	bcf	242,1,c	;volatile
  3932   00259E  924B               	bcf	int$flags,1,c	;clear compiler interrupt flag (level 2)
  3933   0025A0  0011               	retfie		f
  3934   0025A2                     __end_of_hint:
  3935                           	callstack 0
  3936                           
  3937                           	psect	rparam
  3938   000000                     
  3939                           	psect	temp
  3940   00004B                     btemp:
  3941                           	callstack 0
  3942   00004B                     	ds	1
  3943   000000                     int$flags	set	btemp
  3944   000000                     wtemp8	set	btemp+1
  3945   000000                     ttemp5	set	btemp+1
  3946   000000                     ttemp6	set	btemp+4
  3947   000000                     ttemp7	set	btemp+8
  3948                           tosu	equ	0xFFF
  3949                           tosh	equ	0xFFE
  3950                           tosl	equ	0xFFD
  3951                           stkptr	equ	0xFFC
  3952                           pclatu	equ	0xFFB
  3953                           pclath	equ	0xFFA
  3954                           pcl	equ	0xFF9
  3955                           tblptru	equ	0xFF8
  3956                           tblptrh	equ	0xFF7
  3957                           tblptrl	equ	0xFF6
  3958                           tablat	equ	0xFF5
  3959                           prodh	equ	0xFF4
  3960                           prodl	equ	0xFF3
  3961                           indf0	equ	0xFEF
  3962                           postinc0	equ	0xFEE
  3963                           postdec0	equ	0xFED
  3964                           preinc0	equ	0xFEC
  3965                           plusw0	equ	0xFEB
  3966                           fsr0h	equ	0xFEA
  3967                           fsr0l	equ	0xFE9
  3968                           wreg	equ	0xFE8
  3969                           indf1	equ	0xFE7
  3970                           postinc1	equ	0xFE6
  3971                           postdec1	equ	0xFE5
  3972                           preinc1	equ	0xFE4
  3973                           plusw1	equ	0xFE3
  3974                           fsr1h	equ	0xFE2
  3975                           fsr1l	equ	0xFE1
  3976                           bsr	equ	0xFE0
  3977                           indf2	equ	0xFDF
  3978                           postinc2	equ	0xFDE
  3979                           postdec2	equ	0xFDD
  3980                           preinc2	equ	0xFDC
  3981                           plusw2	equ	0xFDB
  3982                           fsr2h	equ	0xFDA
  3983                           fsr2l	equ	0xFD9
  3984                           status	equ	0xFD8

Data Sizes:
    Strings     0
    Constant    24
    Data        0
    BSS         31
    Persistent  0
    Stack       0

Auto Spaces:
    Space          Size  Autos    Used
    COMRAM           94     43      74
    BANK0           160      0       0
    BANK1           256      0       0
    BANK2           256      0       0
    BANK3           256      0       0
    BANK4           256      0       0
    BANK5           256      0       0
    BANK6           256      0       0
    BANK7           256      0       0

Pointer List with Targets:

    None.

Critical Paths under _main in COMRAM

    None.

Critical Paths under _lint in COMRAM

    _lint->___fltol
    _fabsf->___xxtofl
    ___fltol->_fabsf
    ___awmod->___awdiv

Critical Paths under _hint in COMRAM

    None.

Critical Paths under _main in BANK0

    None.

Critical Paths under _lint in BANK0

    None.

Critical Paths under _hint in BANK0

    None.

Critical Paths under _main in BANK1

    None.

Critical Paths under _lint in BANK1

    None.

Critical Paths under _hint in BANK1

    None.

Critical Paths under _main in BANK2

    None.

Critical Paths under _lint in BANK2

    None.

Critical Paths under _hint in BANK2

    None.

Critical Paths under _main in BANK3

    None.

Critical Paths under _lint in BANK3

    None.

Critical Paths under _hint in BANK3

    None.

Critical Paths under _main in BANK4

    None.

Critical Paths under _lint in BANK4

    None.

Critical Paths under _hint in BANK4

    None.

Critical Paths under _main in BANK5

    None.

Critical Paths under _lint in BANK5

    None.

Critical Paths under _hint in BANK5

    None.

Critical Paths under _main in BANK6

    None.

Critical Paths under _lint in BANK6

    None.

Critical Paths under _hint in BANK6

    None.

Critical Paths under _main in BANK7

    None.

Critical Paths under _lint in BANK7

    None.

Critical Paths under _hint in BANK7

    None.

Call Graph Tables:

 ---------------------------------------------------------------------------------
 (Depth) Function   	        Calls       Base Space   Used Autos Params    Refs
 ---------------------------------------------------------------------------------
 (0) _main                                                 0     0      0       0
                             _config
 ---------------------------------------------------------------------------------
 (1) _config                                               0     0      0       0
 ---------------------------------------------------------------------------------
 Estimated maximum stack depth 1
 ---------------------------------------------------------------------------------
 (Depth) Function   	        Calls       Base Space   Used Autos Params    Refs
 ---------------------------------------------------------------------------------
 (2) _lint                                                11    11      0    6141
                                             32 COMRAM    11    11      0
                            ___awdiv
                            ___awmod
                            ___fltol
                             ___wmul
                           ___xxtofl
                              _fabsf
 ---------------------------------------------------------------------------------
 (3) _fabsf                                                8     4      4     275
                                             14 COMRAM     8     4      4
                           ___xxtofl (ARG)
 ---------------------------------------------------------------------------------
 (3) ___xxtofl                                            14    10      4     550
                                              0 COMRAM    14    10      4
 ---------------------------------------------------------------------------------
 (3) ___wmul                                               6     2      4    2135
                                              0 COMRAM     6     2      4
 ---------------------------------------------------------------------------------
 (3) ___fltol                                             10     6      4     457
                                             22 COMRAM    10     6      4
                           ___xxtofl (ARG)
                              _fabsf (ARG)
 ---------------------------------------------------------------------------------
 (3) ___awmod                                              6     2      4    1360
                                              8 COMRAM     6     2      4
                            ___awdiv (ARG)
 ---------------------------------------------------------------------------------
 (3) ___awdiv                                              8     4      4    1364
                                              0 COMRAM     8     4      4
 ---------------------------------------------------------------------------------
 Estimated maximum stack depth 3
 ---------------------------------------------------------------------------------
 (Depth) Function   	        Calls       Base Space   Used Autos Params    Refs
 ---------------------------------------------------------------------------------
 (4) _hint                                                 0     0      0       0
 ---------------------------------------------------------------------------------
 Estimated maximum stack depth 4
 ---------------------------------------------------------------------------------

 Call Graph Graphs:

 _main (ROOT)
   _config

 _lint (ROOT)
   ___awdiv
   ___awmod
     ___awdiv (ARG)
   ___fltol
     ___xxtofl (ARG)
     _fabsf (ARG)
       ___xxtofl (ARG)
   ___wmul
   ___xxtofl
   _fabsf

 _hint (ROOT)

 Address spaces:
Name               Size   Autos  Total    Cost      Usage
BIGRAM             7FF      0       0      37        0.0%
EEDATA             100      0       0       0        0.0%
BITBANK7           100      0       0      18        0.0%
BANK7              100      0       0      19        0.0%
BITBANK6           100      0       0      16        0.0%
BANK6              100      0       0      17        0.0%
BITBANK5           100      0       0      14        0.0%
BANK5              100      0       0      15        0.0%
BITBANK4           100      0       0      12        0.0%
BANK4              100      0       0      13        0.0%
BITBANK3           100      0       0      10        0.0%
BANK3              100      0       0      11        0.0%
BITBANK2           100      0       0       8        0.0%
BANK2              100      0       0       9        0.0%
BITBANK1           100      0       0       6        0.0%
BANK1              100      0       0       7        0.0%
BITBANK0            A0      0       0       4        0.0%
BANK0               A0      0       0       5        0.0%
BITCOMRAM           5E      0       0       0        0.0%
COMRAM              5E     2B      4A       1       78.7%
BITBIGSFRllllh      23      0       0      34        0.0%
BITBIGSFRlh         19      0       0      21        0.0%
BITBIGSFRllhhhl     17      0       0      24        0.0%
BITBIGSFRh           D      0       0      20        0.0%
BITBIGSFRllhhlh      B      0       0      27        0.0%
BITBIGSFRlllll       8      0       0      35        0.0%
BITBIGSFRllhhhl      7      0       0      25        0.0%
BITBIGSFRlllh        5      0       0      33        0.0%
BITBIGSFRllhhll      4      0       0      29        0.0%
BITBIGSFRllhhll      4      0       0      30        0.0%
BITBIGSFRllhhhl      1      0       0      23        0.0%
BITBIGSFRllhhll      1      0       0      28        0.0%
BITBIGSFRllhhhh      1      0       0      22        0.0%
BITBIGSFRllhhhl      1      0       0      26        0.0%
BITBIGSFRllhlh       1      0       0      31        0.0%
BITBIGSFRllhll       1      0       0      32        0.0%
BIGSFR               0      0       0     200        0.0%
BITSFR_1             0      0       0     200        0.0%
SFR_1                0      0       0     200        0.0%
BITSFR               0      0       0     200        0.0%
SFR                  0      0       0     200        0.0%
STACK                0      0       0       2        0.0%
NULL                 0      0       0       0        0.0%
ABS                  0      0      4A      36        0.0%
DATA                 0      0      4A       3        0.0%
CODE                 0      0       0       0        0.0%


Microchip Technology PIC18 Macro Assembler V2.46 build 20240104201356 
Symbol Table                                                                                   Tue Feb 06 21:32:08 2024

           ___awdiv@sign 0006                       bsr 0FE0      ___wmul@multiplicand 0003  
                    l232 2502                      l163 257A                      l164 257A  
                    _SIG 0049                      _VAL 003A                      _ope 0047  
           ___awmod@sign 000E                      wreg 0FE8               _TXSTA1bits 0FAC  
           ___fltol@exp1 0020                     l2331 24C2                     l2341 24CC  
                   l2333 24C4                     l2351 24D6                     l2343 24CE  
                   l2335 24C6                     l2327 2486                     l2361 24F8  
                   l2353 24F0                     l2345 24D0                     l2337 24C8  
                   l2329 24C0                     l2363 24FA                     l2355 24F2  
                   l2347 24D2                     l2339 24CA                     l2371 2566  
                   l2365 2500                     l2357 24F4                     l2349 24D4  
                   l2373 256E                     l2359 24F6                     l2375 2572  
                   l2367 255E                     l2369 2562                     _LATA 0F89  
                   i1l83 1144                     i2l65 259E                     i1l97 12A6  
                   i1l89 11E6                     _dis1 0042                     _dis2 0040  
                   _dis3 003E                     _dis4 003C                     _main 255E  
                   _hint 1008                     _lint 1018                     btemp 004B  
                   prodh 0FF4                     prodl 0FF3                     start 203A  
           ___param_bank 0000            ___fltol@sign1 001F                    ?_main 0001  
                  ?_hint 0001                    ?_lint 0001          __end_of___awdiv 23D6  
        __end_of___awmod 2486          __end_of___fltol 2312          ___awdiv@divisor 0003  
                  i1l110 14BA                    i1l120 16FC                    i1l104 13CC  
                  i1l130 1954                    i1l115 15F6                    i1l107 1442  
                  i1l150 1DBC                    i1l135 1A5C                    i1l145 1CB4  
                  i1l235 255C                    i1l158 2012                    i1l532 2310  
                  i1l466 23D4                    i1l479 2484                    i1l911 2536  
                  i1l904 21A2                    i1l890 20AE                    i1l893 220A  
                  i1l897 2146          ___awdiv@counter 0005                    _TMR0H 0FD7  
                  _TMR0L 0FD6                    _PORTD 0F83                    _TRISA 0F92  
                  _TRISB 0F93                    _TRISC 0F94                    _TRISD 0F95  
                  _TRISE 0F96                    _fabsf 2504                    _firma 1006  
                  tablat 0FF5                    ttemp5 004C                    ttemp6 004F  
                  ttemp7 0053                    status 0FD8                    wtemp8 004C  
        __initialization 2582             __end_of_main 2582             __end_of_hint 25A2  
           __end_of_lint 203A                   ??_main 0000                   ??_hint 0001  
                 ??_lint 0021            __activetblptr 0002                   ?_fabsf 000F  
       ___awdiv@dividend 0001                   _ANSELA 0F5B                   _ANSELB 0F5C  
                 _ANSELC 0F5D                   _ANSELD 0F5E                   _ANSELE 0F5F  
                 i1l2001 1408                   i1l2011 1446                   i1l2003 1410  
                 i1l2101 177A                   i1l2021 1498                   i1l2005 1420  
                 i1l2013 145C                   i1l2111 17F6                   i1l2103 177E  
                 i1l2031 14E8                   i1l2023 14A6                   i1l2015 1470  
                 i1l2007 142E                   i1l2201 1B36                   i1l2121 1876  
                 i1l2113 1814                   i1l2105 1782                   i1l2041 1582  
                 i1l2033 14F8                   i1l2025 14B2                   i1l2017 1480  
                 i1l2009 143A                   i1l2211 1BCE                   i1l2203 1B56  
                 i1l2131 18D6                   i1l2123 1896                   i1l2115 181C  
                 i1l2107 178E                   i1l2051 15DA                   i1l2043 1592  
                 i1l2035 151C                   i1l2027 14BE                   i1l2019 1490  
                 i1l2301 1F20                   i1l2221 1C2A                   i1l2213 1BD6  
                 i1l2205 1B74                   i1l2141 1924                   i1l2133 18DE  
                 i1l2125 18B4                   i1l2117 1850                   i1l2109 17D6  
                 i1l2061 1664                   i1l2053 15DE                   i1l2045 15A4  
                 i1l2037 1532                   i1l2029 14D4                   i1l2311 1FA0  
                 i1l2303 1F3E                   i1l2231 1C72                   i1l2223 1C36  
                 i1l2215 1BF6                   i1l2207 1B7C                   i1l2151 198E  
                 i1l2143 1938                   i1l2127 18BC                   i1l2119 186E  
                 i1l2135 18EE                   i1l2071 1680                   i1l2063 1668  
                 i1l2055 15F2                   i1l2047 15B4                   i1l2039 1542  
                 i1l2321 2000                   i1l2313 1FC0                   i1l2305 1F46  
                 i1l2241 1CC2                   i1l2233 1C84                   i1l2225 1C3E  
                 i1l2217 1C14                   i1l2209 1BB0                   i1l2161 19D6  
                 i1l2153 19C2                   i1l2145 193C                   i1l2137 1900  
                 i1l2129 18CA                   i1l2081 16B8                   i1l2073 1688  
                 i1l2065 166C                   i1l2057 1604                   i1l2049 15C6  
                 i1l2315 1FDE                   i1l2307 1F7A                   i1l2323 2010  
                 i1l2251 1D32                   i1l2243 1CEE                   i1l2235 1C98  
                 i1l2219 1C1C                   i1l2227 1C4E                   i1l2163 19DE  
                 i1l2155 19C6                   i1l2147 1950                   i1l2139 1912  
                 i1l2171 1A06                   i1l2091 170A                   i1l2083 16CC  
                 i1l2075 1690                   i1l2067 1674                   i1l2059 1630  
                 i1l1701 23B4                   i1l2317 1FE6                   i1l2309 1F98  
                 i1l2261 1D56                   i1l2253 1D36                   i1l2245 1D22  
                 i1l2237 1C9C                   i1l2229 1C60                   i1l2181 1A58  
                 i1l2173 1A18                   i1l2165 19E6                   i1l2157 19CA  
                 i1l2149 1962                   i1l2093 1736                   i1l2085 16E0  
                 i1l2077 1698                   i1l2069 1678                   i1l1703 23C4  
                 i1l1711 23DA                   i1l2319 1FF4                   i1l2271 1DA4  
                 i1l2255 1D3E                   i1l2247 1D26                   i1l2239 1CB0  
                 i1l2263 1D66                   i1l2191 1AD2                   i1l2183 1A6A  
                 i1l2175 1A2C                   i1l2167 19EE                   i1l2159 19D2  
                 i1l2095 176A                   i1l2087 16E4                   i1l2079 16A8  
                 i1l1705 23CC                   i1l1721 240A                   i1l1713 23E8  
                 i1l1801 20E8                   i1l2281 1E2E                   i1l2273 1DB8  
                 i1l2265 1D78                   i1l2257 1D46                   i1l2249 1D2A  
                 i1l2193 1ADA                   i1l2185 1A96                   i1l2177 1A40  
                 i1l2169 19F6                   i1l2097 176E                   i1l2089 16F8  
                 i1l1731 2450                   i1l1723 241C                   i1l1715 23F0  
                 i1l1811 213C                   i1l1803 20F0                   i1l1651 2504  
                 i1l2291 1E5E                   i1l2283 1E32                   i1l2275 1DCA  
                 i1l2267 1D8C                   i1l2259 1D4E                   i1l2195 1ADE  
                 i1l2187 1ACA                   i1l2179 1A44                   i1l2099 1772  
                 i1l1741 247C                   i1l1733 2458                   i1l1725 2424  
                 i1l1717 23F4                   i1l1709 23D6                   i1l1661 2554  
                 i1l1821 21B2                   i1l1813 2178                   i1l1805 20FC  
                 i1l1653 2524                   i1l2293 1EA6                   i1l2285 1E3A  
                 i1l2277 1DF6                   i1l2269 1DA0                   i1l2197 1AE2  
                 i1l2189 1ACE                   i1l1901 11A6                   i1l1671 232C  
                 i1l1735 245E                   i1l1727 242C                   i1l1719 2402  
                 i1l1751 2236                   i1l1831 21FA                   i1l1823 21B6  
                 i1l1815 2184                   i1l1807 212E                   i1l1655 2526  
                 i1l2295 1EC6                   i1l2287 1E3E                   i1l2279 1E2A  
                 i1l2199 1AEE                   i1l1911 11D2                   i1l1903 11AA  
                 i1l1681 2352                   i1l1673 2330                   i1l1665 2312  
                 i1l1729 243A                   i1l1737 2464                   i1l1761 2284  
                 i1l1753 2260                   i1l1745 220C                   i1l1825 21DA  
                 i1l1817 2192                   i1l1809 2130                   i1l2297 1EE4  
                 i1l2289 1E42                   i1l1921 1202                   i1l1905 11B8  
                 i1l1841 1064                   i1l1691 2388                   i1l1683 2364  
                 i1l1675 233E                   i1l1667 2316                   i1l1739 2474  
                 i1l1771 22B0                   i1l1755 2262                   i1l1747 2222  
                 i1l1659 2538                   i1l1827 21EA                   i1l1819 21B0  
                 i1l2299 1EEC                   i1l1931 1240                   i1l1923 1218  
                 i1l1915 11EA                   i1l1907 11C0                   i1l1851 108A  
                 i1l1843 106C                   i1l1835 103E                   i1l1693 239E  
                 i1l1685 236C                   i1l1677 2346                   i1l1669 2324  
                 i1l1781 22E0                   i1l1757 2272                   i1l1829 21F8  
                 i1l1933 1242                   i1l1925 1226                   i1l1917 11FE  
                 i1l1909 11C4                   i1l1861 10BA                   i1l1853 108C  
                 i1l1845 1072                   i1l1837 104C                   i1l1695 23A6  
                 i1l1687 2374                   i1l1679 234A                   i1l1783 22F0  
                 i1l1767 229C                   i1l1759 2276                   i1l1791 206A  
                 i1l1951 12AC                   i1l1935 1250                   i1l1943 127E  
                 i1l1927 122E                   i1l1919 1200                   i1l1871 10F6  
                 i1l1863 10C6                   i1l1855 108E                   i1l1847 1086  
                 i1l1839 1054                   i2l1137 259C                   i1l1697 23A8  
                 i1l1689 2382                   i1l1785 2300                   i1l1777 22C4  
                 i1l1769 22A6                   i1l1793 2078                   i1l1961 12E4  
                 i1l1953 12C0                   i1l1945 128C                   i1l1937 1258  
                 i1l1929 1232                   i1l1881 1146                   i1l1873 10FE  
                 i1l1865 10D4                   i1l1857 10A4                   i1l1849 1088  
                 i1l1699 23AE                   i1l1779 22D0                   i1l1795 20BE  
                 i1l1971 131C                   i1l1963 12F2                   i1l1955 12C2  
                 i1l1947 1290                   i1l1939 1272                   i1l1891 1176  
                 i1l1883 115A                   i1l1875 110A                   i1l1867 10DC  
                 i1l1859 10B2                   i1l1797 20D4                   i1l1789 205A  
                 i1l1973 1328                   i1l1965 12FA                   i1l1957 12D0  
                 i1l1949 129E                   i1l1893 1184                   i1l1885 115C  
                 i1l1877 1118                   i1l1869 10E8                   i1l1981 134A  
                 i1l1991 13B8                   i1l1975 1336                   i1l1967 1306  
                 i1l1959 12D8                   i1l1895 118C                   i1l1887 115E  
                 i1l1879 1128                   i1l1983 1370                   i1l1993 13C4  
                 i1l1985 1382                   i1l1969 1314                   i1l1897 1190  
                 i1l1889 1160                   i1l1995 13D0                   i1l1987 1392  
                 i1l1899 119E                   i1l1989 13AA                   i1l1997 13E6  
                 i1l1999 13F8                   _INTCON 0FF2                   _OSCCON 0FD3  
                 _SPBRG1 0FAF                   _TXREG1 0FAD         __end_of___xxtofl 220C  
                 ___wmul 2538                ??___awdiv 0005                ??___awmod 000D  
              ??___fltol 001B                   _config 2486                   fabsf@u 0013  
                 fabsf@x 000F                   clear_0 2588         ___awdiv@quotient 0007  
        ___awmod@divisor 000B                   isa$std 0001          ___awmod@counter 000D  
           __mediumconst 0000                   tblptrh 0FF7                   tblptrl 0FF6  
                 tblptru 0FF8             ___xxtofl@arg 000B             ___xxtofl@exp 000A  
           ___xxtofl@val 0001               __accesstop 0060  __end_of__initialization 258E  
          ___rparam_used 0001               ___fltol@f1 0017           __pcstackCOMRAM 0001  
          __end_of_fabsf 2538            __end_of_firma 1008                  ??_fabsf 0013  
                ?___wmul 0001                  ?_config 0001                ?___xxtofl 0001  
                _OSCCON2 0FD2                  _OSCTUNE 0F9B                  _SPBRGH1 0FB0  
                __Hparam 0000                  __Lparam 0000                  ___awdiv 2312  
                ___awmod 23D6                  ___fltol 220C             __psmallconst 203E  
                _cambio1 004A                  __pcinit 2582                  __ramtop 0800  
                __ptext0 255E                  __ptext1 2486                  __ptext3 2504  
                __ptext4 2058                  __ptext5 2538                  __ptext6 220C  
                __ptext7 23D6                  __ptext8 2312                _T0CONbits 0FD5  
             ??___xxtofl 0005         ___awmod@dividend 0009           __pintcode_body 259C  
   end_of_initialization 258E        __end_of_segmentos 2057            __Lmediumconst 0000  
                int_func 259C            __p_firma_text 1006                  postinc0 0FEE  
              _PORTDbits 0F83            ___xxtofl@sign 0009           __end_of___wmul 255E  
         __end_of_config 2504      start_initialization 2582                 ??___wmul 0005  
               ??_config 0000              __pbssCOMRAM 002C            __pcstackBANK0 0000  
              __pintcode 1008                 ?___awdiv 0001                 ?___awmod 0009  
               ?___fltol 0017              __pintcodelo 1018                fabsf@F465 002C  
            __smallconst 203E                 _BAUDCON1 0FB8           ___wmul@product 0005  
               _LATCbits 0F8B                 _LATEbits 0F8D                 _IPR1bits 0F9F  
               _PIE1bits 0F9D                _segmentos 203F                 _REINICIO 0048  
               i1u112_20 2324                 i1u120_20 241C                 i1u200_20 1A6A  
               i1u112_21 2320                 i1u120_21 2418                 i1u200_21 1A66  
               i1u113_20 233E                 i1u121_20 243A                 i1u201_20 1B74  
               i1u113_21 233A                 i1u121_21 2436                 i1u201_21 1B70  
               i1u114_20 2364                 i1u122_20 2450                 i1u130_20 22F0  
               i1u210_20 1CC2                 i1u202_20 1BCE                 i1u114_21 2360  
               i1u122_21 244C                 i1u130_21 22EC                 i1u210_21 1CBE  
               i1u202_21 1BCA                 i1u115_20 2382                 i1u123_20 2474  
               i1u131_20 206A                 i1u211_20 1D78                 i1u203_20 1C14  
               i1u115_21 237E                 i1u123_21 2470                 i1u131_21 2066  
               i1u211_21 1D74                 i1u203_21 1C10                 i1u116_20 239E  
               i1u124_20 2222                 i1u140_20 21F8                 i1u132_20 2078  
               i1u220_20 1FF4                 i1u212_20 1D8C                 i1u204_20 1C2A  
               i1u116_21 239A                 i1u124_21 221E                 i1u140_21 21F4  
               i1u132_21 2074                 i1u220_21 1FF0                 i1u212_21 1D88  
               i1u204_21 1C26                 i1u117_20 23C4                 i1u125_20 2256  
               i1u133_20 20D4                 i1u213_20 1DA0                 i1u205_20 1C60  
               i1u141_20 104C                 i1u117_21 23C0                 i1u133_21 20D0  
               i1u213_21 1D9C                 i1u205_21 1C5C                 i1u141_21 1048  
               i1u125_25 224C                 i1u221_27 1132                 i1u118_20 23E8  
               i1u126_20 2284                 i1u134_20 212A                 i1u214_20 1DB8  
               i1u206_20 1C72                 i1u150_20 119E                 i1u142_20 1064  
               i1u118_21 23E4                 i1u126_21 2280                 i1u134_21 2126  
               i1u214_21 1DB4                 i1u206_21 1C6E                 i1u150_21 119A  
               i1u142_21 1060                 i1u230_27 19FC                 i1u222_27 1262  
               i1u119_20 2402                 i1u127_20 2298                 i1u135_20 2174  
               i1u215_20 1DCA                 i1u207_20 1C84                 i1u151_20 11B8  
               i1u143_20 10A4                 i1u119_21 23FE                 i1u127_21 2294  
               i1u135_21 2170                 i1u215_21 1DC6                 i1u207_21 1C80  
               i1u151_21 11B4                 i1u143_21 10A0                 i1u231_27 1C44  
               i1u223_27 13DA                 i1u128_20 22C0                 i1u136_20 2192  
               i1u216_20 1EE4                 i1u208_20 1C98                 i1u160_20 12F2  
               i1u152_20 11D2                 i1u144_20 10B2                 i1u128_21 22BC  
               i1u136_21 218E                 i1u216_21 1EE0                 i1u208_21 1C94  
               i1u160_21 12EE                 i1u152_21 11CE                 i1u144_21 10AE  
               i1u232_27 1D5C                 i1u224_27 1450                 i1u129_20 22E0  
               i1u137_20 21A2                 i1u217_20 1F3E                 i1u209_20 1CB0  
               i1u161_20 1314                 i1u153_20 1218                 i1u145_20 10D4  
               i1u129_21 22DC                 i1u137_21 219E                 i1u217_21 1F3A  
               i1u209_21 1CAC                 i1u161_21 1310                 i1u153_21 1214  
               i1u145_21 10D0                 i1u233_27 2006                 i1u225_27 14C8  
               i1u138_20 21B0                 i1u218_20 1F98                 i1u170_20 1480  
               i1u162_20 1336                 i1u154_20 1226                 i1u146_20 10F6  
               i1u138_21 21AC                 i1u218_21 1F94                 i1u170_21 147C  
               i1u162_21 1332                 i1u154_21 1222                 i1u146_21 10F2  
               i1u226_27 1526                 i1u139_20 21EA                 i1u219_20 1FDE  
               i1u171_20 14A6                 i1u163_20 1382                 i1u155_20 1240  
               i1u147_20 1118                 i1u139_21 21E6                 i1u219_21 1FDA  
               i1u171_21 14A2                 i1u163_21 137E                 i1u155_21 123C  
               i1u147_21 1114                 i1u227_27 1588                 i1u180_20 1604  
               i1u172_20 14E8                 i1u164_20 1392                 i1u156_20 1250  
               i1u148_20 1176                 i1u180_21 1600                 i1u172_21 14E4  
               i1u164_21 138E                 i1u156_21 124C                 i1u148_21 1172  
               i1u228_27 169E                 i1u181_20 16B8                 i1u173_20 14F8  
               i1u165_20 13B8                 i1u157_20 128C                 i1u149_20 1184  
               i1u181_21 16B4                 i1u173_21 14F4                 i1u165_21 13B4  
               i1u157_21 1288                 i1u149_21 1180                 i1u229_27 18E4  
               i1u190_20 1900                 i1u182_20 16CC                 i1u174_20 1542  
               i1u166_20 13F8                 i1u158_20 129E                 i1u190_21 18FC  
               i1u182_21 16C8                 i1u174_21 153E                 i1u166_21 13F4  
               i1u158_21 129A                 i1u191_20 1912                 i1u183_20 16E0  
               i1u175_20 15A4                 i1u167_20 1408                 i1u159_20 12D0  
               i1u191_21 190E                 i1u183_21 16DC                 i1u175_21 15A0  
               i1u167_21 1404                 i1u159_21 12CC                 i1u192_20 1924  
               i1u184_20 16F8                 i1u176_20 15B4                 i1u168_20 142E  
               i1u192_21 1920                 i1u184_21 16F4                 i1u176_21 15B0  
               i1u168_21 142A                 i1u193_20 1938                 i1u185_20 170A  
               i1u177_20 15C6                 i1u169_20 1470                 i1u193_21 1934  
               i1u185_21 1706                 i1u177_21 15C2                 i1u169_21 146C  
               i1u194_20 1950                 i1u186_20 1814                 i1u178_20 15DA  
               i1u194_21 194C                 i1u186_21 1810                 i1u178_21 15D6  
               i1u195_20 1962                 i1u187_20 186E                 i1u179_20 15F2  
               i1u195_21 195E                 i1u187_21 186A                 i1u179_21 15EE  
               i1u196_20 1A18                 i1u188_20 18B4                 i1u196_21 1A14  
               i1u188_21 18B0                 i1u197_20 1A2C                 i1u189_20 18CA  
               i1u197_21 1A28                 i1u189_21 18C6                 i1u198_20 1A40  
               i1u198_21 1A3C                 i1u199_20 1A58                 i1u199_21 1A54  
               _PIR1bits 0F9E                 _RCONbits 0FD0                _resultado 0032  
      ___wmul@multiplier 0001              _INTCON2bits 0FF1                 __Hrparam 0000  
               __Lrparam 0000                 _bandera1 0044                 ___xxtofl 2058  
               _contador 0034                 isa$xinst 0000                 int$flags 004B  
               _sumando1 0038                 _sumando2 0036               _INTCONbits 0FF2  
               lint@rota 0046                 intlevel1 0000                 intlevel2 0000  
             _RCSTA1bits 0FAB             _resultadoabs 0030            _firma_absaddr 1006  
